(lp0
V00098
p1
aV10
p2
aV100
p3
aV1000
p4
aV10000
p5
aV11
p6
aV111
p7
aV1168
p8
aV12
p9
aV120
p10
aV1200
p11
aV128
p12
aV13
p13
aV14
p14
aV140
p15
aV15
p16
aV150
p17
aV16
p18
aV17
p19
aV170
p20
aV179
p21
aV18
p22
aV180
p23
aV1868
p24
aV189
p25
aV1890
p26
aV1894
p27
aV19
p28
aV1911
p29
aV1913
p30
aV1919
p31
aV192
p32
aV1922
p33
aV1923
p34
aV1927
p35
aV1931
p36
aV1932
p37
aV1933
p38
aV1934
p39
aV1935
p40
aV1936
p41
aV1939
p42
aV1940
p43
aV1941
p44
aV1942
p45
aV1944
p46
aV1945
p47
aV1946
p48
aV1947
p49
aV1948
p50
aV1949
p51
aV1950
p52
aV1951
p53
aV1953
p54
aV1954
p55
aV1955
p56
aV1956
p57
aV1957
p58
aV1959
p59
aV1960
p60
aV1961
p61
aV1962
p62
aV1963
p63
aV1964
p64
aV1965
p65
aV1967
p66
aV1968
p67
aV1970
p68
aV1971
p69
aV1972
p70
aV1973
p71
aV1974
p72
aV1975
p73
aV1976
p74
aV1977
p75
aV1978
p76
aV1980
p77
aV1981
p78
aV1982
p79
aV1983
p80
aV1984
p81
aV1985
p82
aV1986
p83
aV1987
p84
aV1988
p85
aV1989
p86
aV1990
p87
aV1991
p88
aV1992
p89
aV1993
p90
aV1994
p91
aV1995
p92
aV1996
p93
aV1997
p94
aV1998
p95
aV1999
p96
aV20
p97
aV200
p98
aV2000
p99
aV20000
p100
aV2001
p101
aV2003
p102
aV2004
p103
aV2005
p104
aV2006
p105
aV2007
p106
aV2008
p107
aV2009
p108
aV2010
p109
aV2011
p110
aV2012
p111
aV2013
p112
aV2015
p113
aV2017
p114
aV20239
p115
aV2061
p116
aV21
p117
aV22
p118
aV221
p119
aV2284203340
p120
aV23
p121
aV24
p122
aV25
p123
aV253
p124
aV26
p125
aV27
p126
aV28
p127
aV29
p128
aV30
p129
aV300
p130
aV302
p131
aV31
p132
aV32
p133
aV34
p134
aV39
p135
aV40
p136
aV400
p137
aV40392
p138
aV407
p139
aV41766
p140
aV42226
p141
aV42591
p142
aV43052
p143
aV43514
p144
aV44534
p145
aV450
p146
aV45244
p147
aV468
p148
aV49
p149
aV50
p150
aV51
p151
aV55
p152
aV5639020
p153
aV60
p154
aV61
p155
aV618
p156
aV627
p157
aV64
p158
aV70
p159
aV700
p160
aV72
p161
aV75
p162
aV762
p163
aV80
p164
aV8000
p165
aV802
p166
aV80386
p167
aV80486
p168
aV80522
p169
aV8086
p170
aV850
p171
aV863
p172
aV881
p173
aV90
p174
aV95
p175
aV978
p176
aV9787106022433
p177
aV9787111078876
p178
aV9787111162452
p179
aV9787112090020
p180
aV9787112129317
p181
aV9787112129546
p182
aV9787116056619
p183
aV9787229046675
p184
aV9787302061038
p185
aV9787302070092
p186
aV9787302113768
p187
aV9787502429355
p188
aV9787503241673
p189
aV9787511835772
p190
aV9787513501910
p191
aV9787532736379
p192
aV9787539418629
p193
aV9787563507207
p194
aV9787801250421
p195
aV9787810465885
p196
aV9787811144154
p197
aVab
p198
aVabd
p199
aVabelson
p200
aVabstracts
p201
aVac
p202
aVace
p203
aVacm
p204
aVadaboost
p205
aVadsl
p206
aVadvances
p207
aVadvocate
p208
aVaeronautics
p209
aVaes
p210
aVaffairs
p211
aVagent
p212
aVagents
p213
aVai
p214
aVaicte
p215
aVaims
p216
aValgorithmic
p217
aVall
p218
aValliance
p219
aValloy
p220
aValso
p221
aVam
p222
aVambari
p223
aVamd
p224
aVamesim
p225
aVamp
p226
aVamsterdam
p227
aVanalytical
p228
aVand
p229
aVando
p230
aVandosprocinfo
p231
aVandrews
p232
aVandrisk
p233
aVandroid
p234
aVantocad
p235
aVapache
p236
aVapi
p237
aVapp
p238
aVapplications
p239
aVapplied
p240
aVar
p241
aVarchitecture
p242
aVareas
p243
aVaris
p244
aVarise
p245
aVarm
p246
aVarmijo
p247
aVarrows
p248
aVas
p249
aVascape
p250
aVascherman
p251
aVaspects
p252
aVastronautics
p253
aVat
p254
aVatm
p255
aVatr
p256
aVattracts
p257
aVaustria
p258
aVautocad
p259
aVautolisp
p260
aVautomobile
p261
aVawgn
p262
aVb00sting
p263
aVback
p264
aVbaker
p265
aVbarr
p266
aVbayesian
p267
aVbbcontent
p268
aVbbs
p269
aVbe
p270
aVbeen
p271
aVbell
p272
aVberkeley
p273
aVbfgs
p274
aVbi
p275
aVbikel
p276
aVbinder
p277
aVbios
p278
aVblair
p279
aVblakeslee
p280
aVbock
p281
aVboden
p282
aVboltzmann
p283
aVbook
p284
aVboosting
p285
aVbooth
p286
aVborn
p287
aVbourg
p288
aVboxes
p289
aVboxesandarrows
p290
aVboyscast
p291
aVbp
p292
aVbr
p293
aVbrown
p294
aVbroyden
p295
aVbryant
p296
aVbsd
p297
aVbsu
p298
aVbusiness
p299
aVby
p300
aVc5
p301
aVc7
p302
aVcacsd
p303
aVcad
p304
aVcae
p305
aVcalifornia
p306
aVcam
p307
aVcamden
p308
aVcame
p309
aVcan
p310
aVcanada
p311
aVcapp
p312
aVcarnegie
p313
aVcase
p314
aVccs
p315
aVcdma
p316
aVcdns
p317
aVced
p318
aVcenter
p319
aVcfg
p320
aVchampaign
p321
aVcheng
p322
aVchiao
p323
aVchinese
p324
aVchomsky
p325
aVchung
p326
aVcisc
p327
aVcisco
p328
aVclass
p329
aVcloudcom
p330
aVclub
p331
aVcluster
p332
aVcm
p333
aVcmu
p334
aVcn
p335
aVcold
p336
aVcollection
p337
aVcollects
p338
aVcom
p339
aVcommon
p340
aVcommunication
p341
aVcomputational
p342
aVcomputer
p343
aVcomputerscience
p344
aVcomputin
p345
aVcomputing
p346
aVconcepts
p347
aVconference
p348
aVconnectivity
p349
aVcontinents
p350
aVcorba
p351
aVcots
p352
aVcouchdb
p353
aVcoulouris
p354
aVcountries
p355
aVcourseware
p356
aVcover
p357
aVcpu
p358
aVcq
p359
aVcreative
p360
aVcrm
p361
aVcs
p362
aVcsapp
p363
aVcscl
p364
aVcscw
p365
aVcswp
p366
aVcunningham
p367
aVcvi
p368
aVcybernetic
p369
aVcybernetics
p370
aVcyk
p371
aVczech
p372
aVc\u8bed\u8a00
p373
aVdalvik
p374
aVdaniel
p375
aVdar
p376
aVdas
p377
aVdatabase
p378
aVdavid
p379
aVdb
p380
aVdb2
p381
aVdba
p382
aVdc
p383
aVdcs
p384
aVdct
p385
aVddl
p386
aVdds
p387
aVdeas
p388
aVdelaney
p389
aVdemonstrating
p390
aVden
p391
aVdeveloper
p392
aVdevelopments
p393
aVdex
p394
aVdfp
p395
aVdft
p396
aVdi
p397
aVdialoca
p398
aVdirected
p399
aVdirector
p400
aVdis
p401
aVdiv
p402
aVdk
p403
aVdna
p404
aVdollimore
p405
aVdongarra
p406
aVdos
p407
aVdougherty
p408
aVdrawings
p409
aVds
p410
aVdsl
p411
aVdsp
p412
aVdspace
p413
aVdss
p414
aVdst
p415
aVdwt
p416
aVearley
p417
aVeda
p418
aVedu
p419
aVefmub
p420
aVefs
p421
aVeigen
p422
aVel
p423
aVelectronics
p424
aVeliza
p425
aVellis
p426
aVelman
p427
aVemc
p428
aVengineering
p429
aVengland
p430
aVenhances
p431
aVer
p432
aVerent
p433
aVerp
p434
aVesim
p435
aVesprit
p436
aVetc
p437
aVeurographics
p438
aVeuroia
p439
aVeuropean
p440
aVexchanges
p441
aVexplore
p442
aVextensions
p443
aVe\u901a
p444
aVfacts
p445
aVfaculty
p446
aVfat
p447
aVfcip
p448
aVfcs
p449
aVfellow
p450
aVfir
p451
aVfirst
p452
aVflower
p453
aVfocuses
p454
aVfopc
p455
aVfor
p456
aVforum
p457
aVfoss
p458
aVfox
p459
aVframes
p460
aVfrance
p461
aVfred
p462
aVfrom
p463
aVfromkin
p464
aVfsa
p465
aVfst
p466
aVftp
p467
aVfunction
p468
aVfuture
p469
aVgale
p470
aVgarcia
p471
aVgarrett
p472
aVgeocities
p473
aVgeoffrey
p474
aVgeorge
p475
aVgerald
p476
aVgermany
p477
aVgf
p478
aVgillian
p479
aVgis
p480
aVgiven
p481
aVgleick
p482
aVglenn
p483
aVgnss
p484
aVgo
p485
aVgoal
p486
aVgood
p487
aVgoogle
p488
aVgordon
p489
aVgps
p490
aVgraaphics
p491
aVgrandvalley
p492
aVgraph
p493
aVgraphics
p494
aVgrenoble
p495
aVgrnn
p496
aVgs
p497
aVgt
p498
aVgui
p499
aVh1
p500
aVh2
p501
aVhadoop
p502
aVhaken
p503
aVhal
p504
aVhallaron
p505
aVhandspring
p506
aVhanusse
p507
aVharbor
p508
aVharold
p509
aVhas
p510
aVhawkins
p511
aVhayes
p512
aVhaykin
p513
aVhbase
p514
aVhdfs
p515
aVhe
p516
aVhearn
p517
aVhector
p518
aVheld
p519
aVhermann
p520
aVhesham
p521
aVhighlyreliable
p522
aVhilbert
p523
aVhis
p524
aVhisa
p525
aVhistory
p526
aVhla
p527
aVhmm
p528
aVhnc
p529
aVholder
p530
aVhon
p531
aVhoo
p532
aVhopcroft
p533
aVhopfield
p534
aVhorowitz
p535
aVhow
p536
aVhtml
p537
aVhtml5
p538
aVhttp
p539
aVhumboldt
p540
aVhung
p541
aVhwang
p542
aVia32
p543
aVian
p544
aVibm
p545
aVibmpc
p546
aVic
p547
aVica
p548
aVicpc
p549
aVic\u5361
p550
aVidentify
p551
aViee
p552
aVieee
p553
aViet
p554
aVifcc
p555
aViimt
p556
aViir
p557
aViit
p558
aVilya
p559
aVimag
p560
aVimagine
p561
aVimed
p562
aVimu
p563
aVin
p564
aVinc
p565
aVincluding
p566
aVincreasing
p567
aVinfocom
p568
aVinformation
p569
aVinreliability
p570
aVinside
p571
aVinstitute
p572
aVinstitutes
p573
aVinstruments
p574
aVinte
p575
aVintel
p576
aVintel80x86
p577
aVintelligent
p578
aVintelx86
p579
aVinternational
p580
aVinternet
p581
aVip
p582
aVipad
p583
aVipgjqfme
p584
aViphone
p585
aVis
p586
aVisbn
p587
aVisbn7
p588
aViscsi
p589
aVit
p590
aVitaly
p591
aVitisdevoted
p592
aViv
p593
aVixp2xxx
p594
aVjack
p595
aVjames
p596
aVjapan
p597
aVjava
p598
aVjavascript
p599
aVjaysussman
p600
aVjean
p601
aVjeff
p602
aVjeffrey
p603
aVjennifer
p604
aVjohn
p605
aVjoined
p606
aVjouranl
p607
aVjoy
p608
aVjp
p609
aVjs
p610
aVjulia
p611
aVjulie
p612
aVjune
p613
aVkaashoek
p614
aVkai
p615
aVkalbach
p616
aVkalen
p617
aVkamala
p618
aVkanpur
p619
aVkarlstrom
p620
aVkautz
p621
aVkia
p622
aVkindberg
p623
aVkishor
p624
aVkit
p625
aVkohonen
p626
aVkonstatinos
p627
aVkoutroumbas
p628
aVkrithivasan
p629
aVkurose
p630
aVkv
p631
aVl2
p632
aVl6wenheim
p633
aVl974
p634
aVlab
p635
aVlabwindows
p636
aVlahdenmaki
p637
aVlambda
p638
aVlanguage
p639
aVlaplacian
p640
aVlawrence
p641
aVlcd
p642
aVld
p643
aVleach
p644
aVlearn
p645
aVlevelt
p646
aVlexisnexis
p647
aVlilly
p648
aVlims
p649
aVlin
p650
aVlinguistics
p651
aVlinux
p652
aVlisp
p653
aVlmi
p654
aVlms
p655
aVloadrunner
p656
aVlong
p657
aVlooks
p658
aVlotka
p659
aVlowenhenm
p660
aVlp
p661
aVlqg
p662
aVlr
p663
aVlsi
p664
aVlt
p665
aVltr
p666
aVlvq
p667
aVlyapounov
p668
aVlypunov
p669
aVma
p670
aVmachine
p671
aVmackay
p672
aVmacvicarfacultyfellow
p673
aVmail
p674
aVmajor
p675
aVmandelbrot
p676
aVmanfred
p677
aVmanning
p678
aVmapreduce
p679
aVmargaret
p680
aVmarkov
p681
aVmas
p682
aVmassachusetts
p683
aVmaster
p684
aVmastercam
p685
aVmat
p686
aVmatb
p687
aVmathematica
p688
aVmathematical
p689
aVmathematicalmethods
p690
aVmathlab
p691
aVmathworks
p692
aVmati
p693
aVmatlab
p694
aVmatsushita
p695
aVmba
p696
aVmcmaster
p697
aVmcnaughton
p698
aVmeasurement
p699
aVmedia
p700
aVmellon
p701
aVmenger
p702
aVmes
p703
aVmethods
p704
aVmetropolis
p705
aVmeyer
p706
aVmichael
p707
aVmichigan
p708
aVmicrosoft
p709
aVmimo
p710
aVminix
p711
aVminneapolis
p712
aVmit
p713
aVmit1992
p714
aVmm
p715
aVmmr
p716
aVmmr2011
p717
aVmmx
p718
aVmoates
p719
aVmobilefirst
p720
aVmode
p721
aVmodeler
p722
aVmodern
p723
aVmolina
p724
aVmongodb
p725
aVmonk
p726
aVmore
p727
aVmostafa
p728
aVmotwani
p729
aVmto
p730
aVmulitisim
p731
aVmultisim
p732
aVmultisim10
p733
aVmusa
p734
aVmusic
p735
aVmy
p736
aVmysql
p737
aVnas
p738
aVnastran
p739
aVnathalie
p740
aVnational
p741
aVnatural
p742
aVncsa
p743
aVneo4j
p744
aVnet
p745
aVnetherlands
p746
aVnetwork
p747
aVnew
p748
aVnewton
p749
aVnfsa
p750
aVni
p751
aVniles
p752
aVnimultisim
p753
aVnlp
p754
aVnltk
p755
aVnn
p756
aVnode
p757
aVnoebert
p758
aVnorris
p759
aVnorway
p760
aVnosql
p761
aVnow
p762
aVnp
p763
aVntfs
p764
aVnumber
p765
aVnumenta
p766
aVnusmv
p767
aVo414
p768
aVobjects
p769
aVoceanbase
p770
aVof
p771
aVofdm
p772
aVolap
p773
aVon
p774
aVonce
p775
aVonline
p776
aVonsale
p777
aVopa
p778
aVopen
p779
aVopengl
p780
aVopnet
p781
aVoracle
p782
aVorbyextractingnewproblemsfromapplications
p783
aVorg
p784
aVos
p785
aVother
p786
aVours
p787
aVoxford
p788
aVpacs
p789
aVpalm
p790
aVpalmpilot
p791
aVpapers
p792
aVparticipants
p793
aVpascal
p794
aVpatrick
p795
aVpcfg
p796
aVpci
p797
aVpc\u673a
p798
aVpear
p799
aVpervasive
p800
aVpetri
p801
aVpfleeger
p802
aVph
p803
aVphilosophy
p804
aVphotoshop
p805
aVphp
p806
aVphysics
p807
aVpid
p808
aVplace
p809
aVplatinum
p810
aVplc
p811
aVplusus
p812
aVpnn
p813
aVporter
p814
aVportsmouth
p815
aVpostgresql
p816
aVpotter
p817
aVpowerdesigner
p818
aVpowerdesiper
p819
aVpowerpoint
p820
aVppp
p821
aVppt
p822
aVpractical
p823
aVpractice
p824
aVpreface
p825
aVpresent
p826
aVprigogine
p827
aVpro
p828
aVproceedings
p829
aVprocessing
p830
aVprocessor
p831
aVprofessor
p832
aVprogramming
p833
aVpromotes
p834
aVpso
p835
aVpublic
p836
aVpwm
p837
aVpython
p838
aVqft
p839
aVqingping3150
p840
aVqtp
p841
aVquanser
p842
aVquestions
p843
aVr2007
p844
aVraid
p845
aVrajeev
p846
aVrama
p847
aVrandal
p848
aVranjancboseccc
p849
aVray
p850
aVraymond
p851
aVraymondcamden
p852
aVrazorfish
p853
aVrbf
p854
aVrdbms
p855
aVrealistic
p856
aVreceived
p857
aVrecent
p858
aVrections
p859
aVredis
p860
aVreflect
p861
aVreliability
p862
aVren
p863
aVrepast
p864
aVrepublic
p865
aVresearch
p866
aVresearchers
p867
aVresults
p868
aVrevlo
p869
aVrewini
p870
aVrfc
p871
aVrfid
p872
aVriak
p873
aVriccati
p874
aVrijndael
p875
aVripley
p876
aVrisc
p877
aVrisk
p878
aVrman
p879
aVrosenblatt
p880
aVrst
p881
aVrte
p882
aVrti
p883
aVrtk
p884
aVrtn
p885
aVrussell
p886
aVrutgers
p887
aVsa
p888
aVsaltzer
p889
aVsan
p890
aVsandra
p891
aVsar
p892
aVsatellite
p893
aVscanlon
p894
aVschumpeter1883
p895
aVscience
p896
aVsciences
p897
aVscsi
p898
aVseemann
p899
aVsentence
p900
aVserclios
p901
aVserver
p902
aVseventh
p903
aVshari
p904
aVshowed
p905
aVsigcomm
p906
aVsiggraph
p907
aVsigmetrics
p908
aVsignless
p909
aVsimon
p910
aVsimonhaykin
p911
aVsimulation
p912
aVsimulink
p913
aVsina
p914
aVsirraalink
p915
aVskolem
p916
aVslam
p917
aVslo
p918
aVsm
p919
aVsmpl
p920
aVsmtp
p921
aVsmu
p922
aVsociology
p923
aVsockets
p924
aVsoftbank
p925
aVsohdworks
p926
aVsolidworks
p927
aVsolidworks2012
p928
aVsom
p929
aVsommerille
p930
aVsonet
p931
aVspain
p932
aVsparc
p933
aVsparc64
p934
aVspark
p935
aVspring
p936
aVspss
p937
aVsql
p938
aVsqlserver
p939
aVsqp
p940
aVsram
p941
aVsrc
p942
aVsse
p943
aVstanford
p944
aVstatistics
p945
aVstemming
p946
aVsteve
p947
aVstk
p948
aVstuart
p949
aVstudio
p950
aVsussman
p951
aVsvm
p952
aVsvracuse
p953
aVswarm
p954
aVswarma
p955
aVswarmagents
p956
aVswitzerland
p957
aVsybase
p958
aVsyracuse
p959
aVsystem
p960
aVsystems
p961
aVtalks
p962
aVtanenbaum
p963
aVtapio
p964
aVtaylor
p965
aVtbl
p966
aVtcad
p967
aVtcm
p968
aVtcp
p969
aVtechniques
p970
aVtechnology
p971
aVterc0m
p972
aVth
p973
aVthan
p974
aVthe
p975
aVtheir
p976
aVtheme
p977
aVthen
p978
aVtheodoridis
p979
aVtheoretic
p980
aVtheoretical
p981
aVtheories
p982
aVtheory
p983
aVtheworkshopwasorganizedbythecenterforalgorithmicsystems
p984
aVthird
p985
aVthis
p986
aVthomas
p987
aVthrough100
p988
aVthuds
p989
aVthumb
p990
aVtim
p991
aVtime
p992
aVtimes
p993
aVtms320f2812
p994
aVto
p995
aVtook
p996
aVtool
p997
aVtoolkit
p998
aVtools
p999
aVtracing
p1000
aVtradition
p1001
aVtransact
p1002
aVtransactions
p1003
aVtreebank
p1004
aVtreo
p1005
aVtrivedi
p1006
aVtts
p1007
aVtung
p1008
aVturing
p1009
aVtwice
p1010
aVudp
p1011
aVug
p1012
aVuk
p1013
aVullman
p1014
aVuml
p1015
aVundiversity
p1016
aVuniting
p1017
aVuniversities
p1018
aVuniversity
p1019
aVunix
p1020
aVurbana
p1021
aVurl
p1022
aVursi
p1023
aVusa
p1024
aVusb
p1025
aVused
p1026
aVutrecht
p1027
aVv4
p1028
aVv9
p1029
aVvarious
p1030
aVve
p1031
aVvideo
p1032
aVvirtual
p1033
aVvirtualization
p1034
aVvisual
p1035
aVviterbi
p1036
aVvm
p1037
aVvmx
p1038
aVvolterra
p1039
aVvrije
p1040
aVvt
p1041
aVwadsworth
p1042
aVwang
p1043
aVwas
p1044
aVwasheldinthemennorodeconferencecenterinelspeet
p1045
aVwcb
p1046
aVweb
p1047
aVwell
p1048
aVwg
p1049
aVwg2003
p1050
aVwhere
p1051
aVwhich
p1052
aVwidom
p1053
aVwiener
p1054
aVwindows
p1055
aVwinrunner
p1056
aVwinster
p1057
aVwith
p1058
aVwitten
p1059
aVwlan
p1060
aVwolf
p1061
aVwordnet
p1062
aVworkshop
p1063
aVworld
p1064
aVwww
p1065
aVx64
p1066
aVx86
p1067
aVxml
p1068
aVxpath
p1069
aVxpp
p1070
aVxquery
p1071
aVxslt
p1072
aVxve
p1073
aVyahoo
p1074
aVyarn
p1075
aVying
p1076
aVyou
p1077
aVz200000
p1078
aVz201000
p1079
aVz201010
p1080
aVz201020
p1081
aVz201030
p1082
aVz201040
p1083
aVz201050
p1084
aVz201060
p1085
aVz201070
p1086
aVz201080
p1087
aVz201090
p1088
aVz201100
p1089
aVzitouni
p1090
aV\u4e00\u4e00
p1091
aV\u4e00\u4e0b
p1092
aV\u4e00\u4e2a
p1093
aV\u4e00\u4e9b
p1094
aV\u4e00\u4ee3
p1095
aV\u4e00\u4f4d
p1096
aV\u4e00\u4f53
p1097
aV\u4e00\u4f53\u5316
p1098
aV\u4e00\u4f8b
p1099
aV\u4e00\u5171
p1100
aV\u4e00\u5207
p1101
aV\u4e00\u53ea
p1102
aV\u4e00\u540d
p1103
aV\u4e00\u5473
p1104
aV\u4e00\u5708
p1105
aV\u4e00\u573a
p1106
aV\u4e00\u5927
p1107
aV\u4e00\u5957
p1108
aV\u4e00\u5b9a
p1109
aV\u4e00\u5bb6
p1110
aV\u4e00\u5c0f
p1111
aV\u4e00\u5c42
p1112
aV\u4e00\u5e74\u7ea7
p1113
aV\u4e00\u652f
p1114
aV\u4e00\u6574\u5957
p1115
aV\u4e00\u6587
p1116
aV\u4e00\u65b9\u9762
p1117
aV\u4e00\u65f6\u671f
p1118
aV\u4e00\u672c
p1119
aV\u4e00\u6837
p1120
aV\u4e00\u68f5
p1121
aV\u4e00\u6b21
p1122
aV\u4e00\u6b3e
p1123
aV\u4e00\u6b65
p1124
aV\u4e00\u6bb5\u65f6\u95f4
p1125
aV\u4e00\u70b9
p1126
aV\u4e00\u767e\u4e94\u5341\u4f59
p1127
aV\u4e00\u76ee\u4e86\u7136
p1128
aV\u4e00\u76f4
p1129
aV\u4e00\u79cd
p1130
aV\u4e00\u7ae0
p1131
aV\u4e00\u7b49
p1132
aV\u4e00\u7b49\u5956
p1133
aV\u4e00\u7bc7
p1134
aV\u4e00\u7c7b
p1135
aV\u4e00\u7cfb\u5217
p1136
aV\u4e00\u7ea7
p1137
aV\u4e00\u7edf\u5929\u4e0b
p1138
aV\u4e00\u81f3
p1139
aV\u4e00\u81f4
p1140
aV\u4e00\u81f4\u6027
p1141
aV\u4e00\u822c
p1142
aV\u4e00\u822c\u6027
p1143
aV\u4e00\u822c\u6765\u8bf4
p1144
aV\u4e00\u8282
p1145
aV\u4e00\u8d77
p1146
aV\u4e00\u90e8
p1147
aV\u4e00\u90e8\u5206
p1148
aV\u4e00\u95e8
p1149
aV\u4e00\u9879
p1150
aV\u4e03\u4e2a
p1151
aV\u4e03\u518c
p1152
aV\u4e03\u5341
p1153
aV\u4e03\u5341\u5e74\u4ee3
p1154
aV\u4e03\u5468
p1155
aV\u4e03\u7ae0
p1156
aV\u4e07\u518c
p1157
aV\u4e07\u7ef4\u7f51
p1158
aV\u4e09\u4e2a
p1159
aV\u4e09\u4f4d
p1160
aV\u4e09\u4f53\u95ee\u9898
p1161
aV\u4e09\u5206\u4e4b\u4e00
p1162
aV\u4e09\u5341
p1163
aV\u4e09\u5341\u591a\u5e74
p1164
aV\u4e09\u539f\u53bf
p1165
aV\u4e09\u5927
p1166
aV\u4e09\u5e74
p1167
aV\u4e09\u661f
p1168
aV\u4e09\u6761
p1169
aV\u4e09\u6b21
p1170
aV\u4e09\u76f8
p1171
aV\u4e09\u79cd
p1172
aV\u4e09\u7b49\u5956
p1173
aV\u4e09\u7bc7
p1174
aV\u4e09\u7c7b
p1175
aV\u4e09\u7ef4
p1176
aV\u4e09\u8005
p1177
aV\u4e09\u89d2\u6d4b\u91cf
p1178
aV\u4e0a\u4e0b\u4f4d
p1179
aV\u4e0a\u4e0b\u6587
p1180
aV\u4e0a\u518c
p1181
aV\u4e0a\u5347
p1182
aV\u4e0a\u534a
p1183
aV\u4e0a\u5377
p1184
aV\u4e0a\u53bb
p1185
aV\u4e0a\u5747
p1186
aV\u4e0a\u6240
p1187
aV\u4e0a\u673a
p1188
aV\u4e0a\u673a\u64cd\u4f5c
p1189
aV\u4e0a\u6765
p1190
aV\u4e0a\u6d77
p1191
aV\u4e0a\u6d77\u4ea4\u901a\u5927\u5b66
p1192
aV\u4e0a\u6d77\u8bd1\u6587\u51fa\u7248\u793e
p1193
aV\u4e0a\u70b9
p1194
aV\u4e0a\u7f51
p1195
aV\u4e0a\u89c4\u6a21
p1196
aV\u4e0a\u8bc1\u6307\u6570
p1197
aV\u4e0a\u8fdb
p1198
aV\u4e0a\u8ff0
p1199
aV\u4e0b\u4e00\u4ee3
p1200
aV\u4e0b\u4ee5
p1201
aV\u4e0b\u518c
p1202
aV\u4e0b\u5217
p1203
aV\u4e0b\u63a8
p1204
aV\u4e0b\u7bc7
p1205
aV\u4e0b\u8f7d
p1206
aV\u4e0b\u8f7d\u5b89\u88c5
p1207
aV\u4e0b\u8fbe
p1208
aV\u4e0b\u964d
p1209
aV\u4e0d\u4ec5
p1210
aV\u4e0d\u4ec5\u4ec5
p1211
aV\u4e0d\u4ec5\u5982\u6b64
p1212
aV\u4e0d\u4f1a
p1213
aV\u4e0d\u4f26\u745e\u514b
p1214
aV\u4e0d\u4f46
p1215
aV\u4e0d\u5148
p1216
aV\u4e0d\u5229
p1217
aV\u4e0d\u5230
p1218
aV\u4e0d\u52a8\u70b9
p1219
aV\u4e0d\u53d8
p1220
aV\u4e0d\u53d8\u6027
p1221
aV\u4e0d\u53ef
p1222
aV\u4e0d\u53ef\u4f30\u91cf
p1223
aV\u4e0d\u53ef\u6216\u7f3a
p1224
aV\u4e0d\u53ef\u9006\u6027
p1225
aV\u4e0d\u540c
p1226
aV\u4e0d\u540c\u4e4b\u5904
p1227
aV\u4e0d\u540c\u4e8e
p1228
aV\u4e0d\u541d
p1229
aV\u4e0d\u5931\u4e3a
p1230
aV\u4e0d\u5982
p1231
aV\u4e0d\u5b8c\u5168\u6027
p1232
aV\u4e0d\u5c11
p1233
aV\u4e0d\u5f53\u4e4b\u5904
p1234
aV\u4e0d\u5fc5
p1235
aV\u4e0d\u65ad
p1236
aV\u4e0d\u65ad\u6269\u5927
p1237
aV\u4e0d\u65ad\u66f4\u65b0
p1238
aV\u4e0d\u662f
p1239
aV\u4e0d\u7075\u654f
p1240
aV\u4e0d\u76f8\u5bb9
p1241
aV\u4e0d\u786e\u5b9a\u6027
p1242
aV\u4e0d\u7b49\u5f0f
p1243
aV\u4e0d\u7ba1
p1244
aV\u4e0d\u80fd
p1245
aV\u4e0d\u83f2
p1246
aV\u4e0d\u89c1
p1247
aV\u4e0d\u8ba1\u5176\u6570
p1248
aV\u4e0d\u8bba
p1249
aV\u4e0d\u8db3
p1250
aV\u4e0d\u8db3\u4ee5
p1251
aV\u4e0d\u8fc7
p1252
aV\u4e0e\u4f1a
p1253
aV\u4e0e\u5176
p1254
aV\u4e0e\u5426
p1255
aV\u4e0e\u65f6\u4ff1\u8fdb
p1256
aV\u4e0e\u6b64\u76f8\u5173
p1257
aV\u4e0e\u975e
p1258
aV\u4e13\u4e1a
p1259
aV\u4e13\u4e1a\u4e66
p1260
aV\u4e13\u4e1a\u4e66\u7c4d
p1261
aV\u4e13\u4e1a\u4eba\u58eb
p1262
aV\u4e13\u4e1a\u5382
p1263
aV\u4e13\u4e1a\u6027
p1264
aV\u4e13\u4e1a\u672c\u79d1
p1265
aV\u4e13\u4e1a\u77e5\u8bc6
p1266
aV\u4e13\u4e1a\u82f1\u8bed
p1267
aV\u4e13\u4e1a\u8bfe
p1268
aV\u4e13\u4fee
p1269
aV\u4e13\u5229
p1270
aV\u4e13\u5411
p1271
aV\u4e13\u5bb6
p1272
aV\u4e13\u5bb6\u7cfb\u7edf
p1273
aV\u4e13\u653b
p1274
aV\u4e13\u680f\u4f5c\u5bb6
p1275
aV\u4e13\u6ce8
p1276
aV\u4e13\u7528
p1277
aV\u4e13\u79d1
p1278
aV\u4e13\u79d1\u5b66\u6821
p1279
aV\u4e13\u8457
p1280
aV\u4e13\u95e8
p1281
aV\u4e13\u95e8\u77e5\u8bc6
p1282
aV\u4e13\u9898
p1283
aV\u4e13\u9898\u5730\u56fe
p1284
aV\u4e13\u9898\u8ba8\u8bba
p1285
aV\u4e16\u4e8b
p1286
aV\u4e16\u754c
p1287
aV\u4e16\u754c\u540d\u8457
p1288
aV\u4e16\u754c\u6027
p1289
aV\u4e16\u754c\u77e5\u8bc6\u51fa\u7248\u793e
p1290
aV\u4e16\u754c\u89c2
p1291
aV\u4e16\u7eaa
p1292
aV\u4e16\u7eaa\u672b
p1293
aV\u4e1a\u5185\u4eba\u58eb
p1294
aV\u4e1a\u52a1
p1295
aV\u4e1a\u52a1\u6d41\u7a0b
p1296
aV\u4e1a\u754c
p1297
aV\u4e1b\u4e66
p1298
aV\u4e1c\u4eac\u5927\u5b66
p1299
aV\u4e1c\u5317
p1300
aV\u4e1c\u5317\u5927\u5b66
p1301
aV\u4e1c\u897f
p1302
aV\u4e1c\u8def
p1303
aV\u4e1c\u90e8
p1304
aV\u4e22\u5931
p1305
aV\u4e24\u4e2a
p1306
aV\u4e24\u4f4d
p1307
aV\u4e24\u518c
p1308
aV\u4e24\u5927
p1309
aV\u4e24\u5bb6
p1310
aV\u4e24\u5e74
p1311
aV\u4e24\u6027
p1312
aV\u4e24\u672c
p1313
aV\u4e24\u6816\u7c7b
p1314
aV\u4e24\u6b21
p1315
aV\u4e24\u70b9
p1316
aV\u4e24\u7528
p1317
aV\u4e24\u79cd
p1318
aV\u4e24\u7ae0
p1319
aV\u4e24\u7bc7
p1320
aV\u4e24\u7c7b
p1321
aV\u4e24\u8005\u4e4b\u95f4
p1322
aV\u4e24\u95e8
p1323
aV\u4e24\u9879
p1324
aV\u4e25\u5bc6
p1325
aV\u4e25\u5bc6\u6027
p1326
aV\u4e25\u683c
p1327
aV\u4e25\u8083\u6027
p1328
aV\u4e25\u851a\u654f
p1329
aV\u4e25\u8c28
p1330
aV\u4e25\u8c28\u6027
p1331
aV\u4e25\u91cd
p1332
aV\u4e25\u91cd\u5a01\u80c1
p1333
aV\u4e2a\u4eba
p1334
aV\u4e2a\u4eba\u7535\u8111
p1335
aV\u4e2a\u4f53
p1336
aV\u4e2a\u5b50
p1337
aV\u4e2a\u6027\u5316
p1338
aV\u4e2a\u6848
p1339
aV\u4e2d\u4eba
p1340
aV\u4e2d\u533b
p1341
aV\u4e2d\u5357\u5927\u5b66
p1342
aV\u4e2d\u539f
p1343
aV\u4e2d\u5411
p1344
aV\u4e2d\u56fd
p1345
aV\u4e2d\u56fd\u4eba\u6c11\u5927\u5b66
p1346
aV\u4e2d\u56fd\u5171\u4ea7\u515a
p1347
aV\u4e2d\u56fd\u79d1\u5b66\u9662
p1348
aV\u4e2d\u56fd\u79d1\u5b66\u9662\u81ea\u52a8\u5316\u7814\u7a76\u6240
p1349
aV\u4e2d\u56fd\u79d1\u5b66\u9662\u8ba1\u7b97\u6280\u672f\u7814\u7a76\u6240
p1350
aV\u4e2d\u56fd\u822a\u7a7a\u5b66\u4f1a
p1351
aV\u4e2d\u56fd\u8ba1\u7b97\u673a\u5b66\u4f1a
p1352
aV\u4e2d\u592e\u5904\u7406\u5668
p1353
aV\u4e2d\u5b66
p1354
aV\u4e2d\u5b66\u751f
p1355
aV\u4e2d\u5b66\u751f\u7269
p1356
aV\u4e2d\u5c06
p1357
aV\u4e2d\u5c42
p1358
aV\u4e2d\u5c71\u5927\u5b66
p1359
aV\u4e2d\u5fc3
p1360
aV\u4e2d\u5fc3\u5316
p1361
aV\u4e2d\u5fc3\u8bed
p1362
aV\u4e2d\u6587
p1363
aV\u4e2d\u6587\u4fe1\u606f
p1364
aV\u4e2d\u6587\u4fe1\u606f\u5904\u7406
p1365
aV\u4e2d\u6587\u7248
p1366
aV\u4e2d\u6587\u8bba\u575b
p1367
aV\u4e2d\u65ad
p1368
aV\u4e2d\u77ed\u7bc7
p1369
aV\u4e2d\u79d1\u9662
p1370
aV\u4e2d\u7acb
p1371
aV\u4e2d\u7b49
p1372
aV\u4e2d\u7b49\u804c\u4e1a
p1373
aV\u4e2d\u7ea7
p1374
aV\u4e2d\u82f1\u5bf9\u7167
p1375
aV\u4e2d\u82f1\u6587
p1376
aV\u4e2d\u8981
p1377
aV\u4e2d\u8bd1\u672c
p1378
aV\u4e2d\u95f4
p1379
aV\u4e2d\u95f4\u4ef6
p1380
aV\u4e2d\u95f4\u8bed
p1381
aV\u4e2d\u975e
p1382
aV\u4e2d\u9891
p1383
aV\u4e2d\u9ad8\u7ea7
p1384
aV\u4e30\u5bcc
p1385
aV\u4e30\u7855
p1386
aV\u4e32\u53e3
p1387
aV\u4e32\u8054
p1388
aV\u4e34\u5e8a
p1389
aV\u4e34\u5e8a\u5b9e\u8df5
p1390
aV\u4e34\u754c
p1391
aV\u4e34\u754c\u73b0\u8c61
p1392
aV\u4e3a\u4e3b
p1393
aV\u4e3a\u4e86
p1394
aV\u4e3a\u4eba\u5e08\u8868
p1395
aV\u4e3a\u4ec0\u4e48
p1396
aV\u4e3a\u4f55
p1397
aV\u4e3a\u5df1
p1398
aV\u4e3a\u6b64
p1399
aV\u4e3b\u4e49
p1400
aV\u4e3b\u4efb
p1401
aV\u4e3b\u4f53
p1402
aV\u4e3b\u4f53\u6027
p1403
aV\u4e3b\u529e
p1404
aV\u4e3b\u5b58
p1405
aV\u4e3b\u5b58\u50a8\u5668
p1406
aV\u4e3b\u5ba1
p1407
aV\u4e3b\u5bfc
p1408
aV\u4e3b\u5e2d
p1409
aV\u4e3b\u5e72\u8bfe\u7a0b
p1410
aV\u4e3b\u5f20
p1411
aV\u4e3b\u5f35
p1412
aV\u4e3b\u6301
p1413
aV\u4e3b\u673a
p1414
aV\u4e3b\u677f
p1415
aV\u4e3b\u6d41
p1416
aV\u4e3b\u6d41\u4ea7\u54c1
p1417
aV\u4e3b\u7ba1
p1418
aV\u4e3b\u7ebf
p1419
aV\u4e3b\u7f16
p1420
aV\u4e3b\u7fa9
p1421
aV\u4e3b\u8981
p1422
aV\u4e3b\u89c2
p1423
aV\u4e3b\u8bb2
p1424
aV\u4e3b\u9898
p1425
aV\u4e3b\u9898\u7d22\u5f15
p1426
aV\u4e3b\u9898\u8bcd
p1427
aV\u4e3e\u4e00\u53cd\u4e09
p1428
aV\u4e3e\u4f8b
p1429
aV\u4e3e\u529e
p1430
aV\u4e3e\u91cd\u82e5\u8f7b
p1431
aV\u4e45\u8d1f\u76db\u540d
p1432
aV\u4e49\u52a1
p1433
aV\u4e4b\u4e00
p1434
aV\u4e4b\u4e0b
p1435
aV\u4e4b\u4e2d
p1436
aV\u4e4b\u4e45
p1437
aV\u4e4b\u5185
p1438
aV\u4e4b\u524d
p1439
aV\u4e4b\u540e
p1440
aV\u4e4b\u5916
p1441
aV\u4e4b\u6240\u4ee5
p1442
aV\u4e4b\u7528
p1443
aV\u4e4b\u7c7b
p1444
aV\u4e4b\u8c1c
p1445
aV\u4e4b\u9593
p1446
aV\u4e4b\u95f4
p1447
aV\u4e4b\u9645
p1448
aV\u4e4c\u6770
p1449
aV\u4e4f\u5473
p1450
aV\u4e50\u4e8e
p1451
aV\u4e50\u8da3
p1452
aV\u4e54\u59c6\u65af\u57fa
p1453
aV\u4e54\u6cbb
p1454
aV\u4e54\u7eb3\u68ee
p1455
aV\u4e58\u5b50
p1456
aV\u4e58\u6cd5
p1457
aV\u4e58\u6cd5\u5668
p1458
aV\u4e58\u79ef
p1459
aV\u4e58\u7c7b
p1460
aV\u4e5d\u4e2a
p1461
aV\u4e5d\u4e94
p1462
aV\u4e5d\u5c4a
p1463
aV\u4e5d\u7ae0
p1464
aV\u4e5f\u8bb8
p1465
aV\u4e60\u9898
p1466
aV\u4e60\u9898\u96c6
p1467
aV\u4e61\u6751
p1468
aV\u4e66\u540e
p1469
aV\u4e66\u5e97
p1470
aV\u4e66\u7b7e
p1471
aV\u4e66\u7c4d
p1472
aV\u4e66\u9762
p1473
aV\u4e66\u9762\u8a00\u8bed
p1474
aV\u4e66\u9762\u8bed\u8a00
p1475
aV\u4e73\u817a
p1476
aV\u4e86\u4e3a
p1477
aV\u4e86\u4ee5
p1478
aV\u4e86\u4f3c
p1479
aV\u4e86\u51b3
p1480
aV\u4e86\u524d
p1481
aV\u4e86\u542b
p1482
aV\u4e86\u56fe
p1483
aV\u4e86\u5b9e
p1484
aV\u4e86\u5bf9
p1485
aV\u4e86\u6709
p1486
aV\u4e86\u7528
p1487
aV\u4e86\u89e3
p1488
aV\u4e86\u8fd1
p1489
aV\u4e86\u9177
p1490
aV\u4e86\u9ad8
p1491
aV\u4e88\u4ee5
p1492
aV\u4e89\u593a
p1493
aV\u4e89\u8bba
p1494
aV\u4e8b\u4e1a
p1495
aV\u4e8b\u4ef6
p1496
aV\u4e8b\u4f8b
p1497
aV\u4e8b\u5148
p1498
aV\u4e8b\u5173
p1499
aV\u4e8b\u52a1
p1500
aV\u4e8b\u52a1\u5904\u7406
p1501
aV\u4e8b\u52a1\u6240
p1502
aV\u4e8b\u52a1\u7ba1\u7406
p1503
aV\u4e8b\u534a\u529f\u500d
p1504
aV\u4e8b\u540e
p1505
aV\u4e8b\u5b9e
p1506
aV\u4e8b\u5b9e\u4e0a
p1507
aV\u4e8b\u6545
p1508
aV\u4e8b\u7269
p1509
aV\u4e8b\u9879
p1510
aV\u4e8c\u500d\u4f53
p1511
aV\u4e8c\u5143
p1512
aV\u4e8c\u5341\u4e00
p1513
aV\u4e8c\u5341\u4e16\u7eaa
p1514
aV\u4e8c\u5341\u4f59
p1515
aV\u4e8c\u5341\u5e74
p1516
aV\u4e8c\u53c9
p1517
aV\u4e8c\u53c9\u6811
p1518
aV\u4e8c\u5e74\u7ea7
p1519
aV\u4e8c\u673a\u90e8
p1520
aV\u4e8c\u6b21
p1521
aV\u4e8c\u6b21\u5f00\u53d1
p1522
aV\u4e8c\u7b49\u5956
p1523
aV\u4e8c\u7ea7
p1524
aV\u4e8c\u7ef4
p1525
aV\u4e8c\u9879\u5f0f
p1526
aV\u4e8e\u6210
p1527
aV\u4e91\u5357\u6606\u660e
p1528
aV\u4e92\u4e0d
p1529
aV\u4e92\u4e3a\u8865\u5145
p1530
aV\u4e92\u4fe1\u606f
p1531
aV\u4e92\u52a8
p1532
aV\u4e92\u52a8\u5173\u7cfb
p1533
aV\u4e92\u60e0
p1534
aV\u4e92\u6362
p1535
aV\u4e92\u64cd\u4f5c
p1536
aV\u4e92\u76f8
p1537
aV\u4e92\u8054
p1538
aV\u4e92\u8054\u7f51
p1539
aV\u4e92\u8fde
p1540
aV\u4e94\u4e2a
p1541
aV\u4e94\u516d\u5341\u5e74\u4ee3
p1542
aV\u4e94\u5341\u4e94
p1543
aV\u4e94\u5927
p1544
aV\u4e94\u5927\u7c7b
p1545
aV\u4e94\u5f69\u7f24\u7eb7
p1546
aV\u4e94\u7ae0
p1547
aV\u4e94\u989c\u516d\u8272
p1548
aV\u4e95\u7136\u6709\u5e8f
p1549
aV\u4e9a\u9a6c\u900a
p1550
aV\u4ea4\u4e92
p1551
aV\u4ea4\u4e92\u5f0f
p1552
aV\u4ea4\u4e92\u6280\u672f
p1553
aV\u4ea4\u53c9
p1554
aV\u4ea4\u53c9\u5b66\u79d1
p1555
aV\u4ea4\u53c9\u6027
p1556
aV\u4ea4\u6362
p1557
aV\u4ea4\u6362\u673a
p1558
aV\u4ea4\u6613
p1559
aV\u4ea4\u6d41
p1560
aV\u4ea4\u6d41\u5e73\u53f0
p1561
aV\u4ea4\u8054
p1562
aV\u4ea4\u8c08
p1563
aV\u4ea4\u901a
p1564
aV\u4ea4\u901a\u6d41
p1565
aV\u4ea4\u901a\u6d41\u91cf
p1566
aV\u4ea4\u901a\u7cfb\u7edf
p1567
aV\u4ea4\u901a\u8fd0\u8f93
p1568
aV\u4ea4\u9645
p1569
aV\u4ea6\u53ef
p1570
aV\u4ea7\u4e1a
p1571
aV\u4ea7\u51fa
p1572
aV\u4ea7\u54c1
p1573
aV\u4ea7\u54c1\u5316
p1574
aV\u4ea7\u54c1\u5f00\u53d1
p1575
aV\u4ea7\u54c1\u7ebf
p1576
aV\u4ea7\u54c1\u8bbe\u8ba1
p1577
aV\u4ea7\u7269
p1578
aV\u4ea7\u751f
p1579
aV\u4eab\u53d7
p1580
aV\u4eab\u6709
p1581
aV\u4eab\u8a89
p1582
aV\u4eb2\u5386
p1583
aV\u4eb2\u5bc6
p1584
aV\u4eb2\u624b
p1585
aV\u4eb2\u81ea
p1586
aV\u4eb2\u8eab
p1587
aV\u4eba\u4e3a
p1588
aV\u4eba\u4eec
p1589
aV\u4eba\u4f53
p1590
aV\u4eba\u529b
p1591
aV\u4eba\u529b\u8d44\u672c
p1592
aV\u4eba\u529b\u8d44\u6e90
p1593
aV\u4eba\u53e3
p1594
aV\u4eba\u540d
p1595
aV\u4eba\u5458
p1596
aV\u4eba\u571f
p1597
aV\u4eba\u5802
p1598
aV\u4eba\u58eb
p1599
aV\u4eba\u5de5
p1600
aV\u4eba\u5de5\u514d\u75ab
p1601
aV\u4eba\u5de5\u667a\u80fd
p1602
aV\u4eba\u5de5\u751f\u547d
p1603
aV\u4eba\u5de5\u795e\u7ecf\u7f51\u7edc
p1604
aV\u4eba\u624d
p1605
aV\u4eba\u624d\u57f9\u517b
p1606
aV\u4eba\u6587
p1607
aV\u4eba\u673a
p1608
aV\u4eba\u673a\u4ea4\u4e92
p1609
aV\u4eba\u673a\u5bf9\u8bdd
p1610
aV\u4eba\u683c
p1611
aV\u4eba\u683c\u9b45\u529b
p1612
aV\u4eba\u6c11
p1613
aV\u4eba\u6c11\u51fa\u7248\u793e
p1614
aV\u4eba\u6c11\u5e01
p1615
aV\u4eba\u7269
p1616
aV\u4eba\u751f
p1617
aV\u4eba\u7c7b
p1618
aV\u4eba\u7c7b\u5b66
p1619
aV\u4eba\u7c7b\u6587\u660e
p1620
aV\u4eba\u80fd
p1621
aV\u4eba\u8138
p1622
aV\u4eba\u8138\u8bc6\u522b
p1623
aV\u4eba\u9053\u4e3b\u4e49
p1624
aV\u4ec0\u4e48
p1625
aV\u4ec0\u4e48\u6837
p1626
aV\u4ec0\u9ebc
p1627
aV\u4ec5\u4ec5
p1628
aV\u4eca\u540e
p1629
aV\u4eca\u5929
p1630
aV\u4ecb\u5165
p1631
aV\u4ecb\u7ecd
p1632
aV\u4ecb\u8bcd
p1633
aV\u4ecb\u8d28
p1634
aV\u4ecd\u7136
p1635
aV\u4ece\u4e1a
p1636
aV\u4ece\u4e1a\u4eba\u5458
p1637
aV\u4ece\u4e2d
p1638
aV\u4ece\u4e8b
p1639
aV\u4ece\u524d
p1640
aV\u4ece\u603b\u4f53\u4e0a
p1641
aV\u4ece\u6559
p1642
aV\u4ece\u6765
p1643
aV\u4ece\u800c
p1644
aV\u4ece\u975e
p1645
aV\u4ed3\u4fc3
p1646
aV\u4ed4\u7ec6
p1647
aV\u4ed6\u4eba
p1648
aV\u4ed6\u4eec
p1649
aV\u4ed8\u51fa
p1650
aV\u4ed8\u6c38\u9886
p1651
aV\u4ee3\u6570
p1652
aV\u4ee3\u6570\u548c
p1653
aV\u4ee3\u6570\u5b66
p1654
aV\u4ee3\u66ff
p1655
aV\u4ee3\u7406
p1656
aV\u4ee3\u7801
p1657
aV\u4ee3\u8868
p1658
aV\u4ee3\u8868\u4f5c
p1659
aV\u4ee3\u8868\u6027
p1660
aV\u4ee3\u8bcd
p1661
aV\u4ee3\u8c22
p1662
aV\u4ee4\u4eba
p1663
aV\u4ee4\u4eba\u5174\u594b
p1664
aV\u4ee5\u4e0a
p1665
aV\u4ee5\u4e0b
p1666
aV\u4ee5\u4fbf
p1667
aV\u4ee5\u524d
p1668
aV\u4ee5\u53ca
p1669
aV\u4ee5\u540e
p1670
aV\u4ee5\u5f80
p1671
aV\u4ee5\u671f
p1672
aV\u4ee5\u6765
p1673
aV\u4ee5\u6b64
p1674
aV\u4ee5\u81f4
p1675
aV\u4ee5\u8eab\u4f5c\u5219
p1676
aV\u4eea\u5668
p1677
aV\u4eea\u5668\u4eea\u8868
p1678
aV\u4eea\u8868
p1679
aV\u4ef7\u503c
p1680
aV\u4efb\u4eba
p1681
aV\u4efb\u4f55
p1682
aV\u4efb\u4f55\u4eba
p1683
aV\u4efb\u52a1
p1684
aV\u4efb\u52a1\u5206\u6790
p1685
aV\u4efb\u610f
p1686
aV\u4efb\u6559
p1687
aV\u4efb\u6559\u4e8e
p1688
aV\u4efb\u804c
p1689
aV\u4eff\u4eba
p1690
aV\u4eff\u5c04
p1691
aV\u4eff\u5c04\u53d8\u6362
p1692
aV\u4eff\u771f
p1693
aV\u4eff\u771f\u6280\u672f
p1694
aV\u4f01\u4e1a
p1695
aV\u4f01\u4e1a\u4f1a\u8ba1
p1696
aV\u4f01\u4e1a\u5bb6
p1697
aV\u4f01\u4e1a\u7ea7
p1698
aV\u4f01\u4e8b\u4e1a
p1699
aV\u4f01\u7ba1
p1700
aV\u4f0a\u5229\u8bfa\u4f0a\u5927\u5b66
p1701
aV\u4f0a\u91cc\u4e9a
p1702
aV\u4f0a\u987f
p1703
aV\u4f11\u62c9
p1704
aV\u4f17\u591a
p1705
aV\u4f18\u5148
p1706
aV\u4f18\u5148\u65b9\u6cd5
p1707
aV\u4f18\u5148\u7ea7
p1708
aV\u4f18\u52bf
p1709
aV\u4f18\u5316
p1710
aV\u4f18\u70b9
p1711
aV\u4f18\u79c0
p1712
aV\u4f18\u79c0\u5956
p1713
aV\u4f18\u79c0\u6559\u5e08
p1714
aV\u4f18\u7b49
p1715
aV\u4f18\u7f3a\u70b9
p1716
aV\u4f18\u7f8e
p1717
aV\u4f18\u8d28
p1718
aV\u4f18\u9009
p1719
aV\u4f1a\u520a
p1720
aV\u4f1a\u5458
p1721
aV\u4f1a\u58eb
p1722
aV\u4f1a\u8ba1
p1723
aV\u4f1a\u8ba1\u4fe1\u606f
p1724
aV\u4f1a\u8bae
p1725
aV\u4f1a\u8bae\u5ba4
p1726
aV\u4f1a\u8bae\u5f55
p1727
aV\u4f1a\u8bdd
p1728
aV\u4f1f\u5927
p1729
aV\u4f1f\u6c11
p1730
aV\u4f20\u5947
p1731
aV\u4f20\u611f\u5668
p1732
aV\u4f20\u6388
p1733
aV\u4f20\u64ad
p1734
aV\u4f20\u67d3\u75c5
p1735
aV\u4f20\u70ed
p1736
aV\u4f20\u7edf
p1737
aV\u4f20\u7edf\u610f\u4e49
p1738
aV\u4f20\u7f51
p1739
aV\u4f20\u8f93
p1740
aV\u4f20\u8f93\u5c42
p1741
aV\u4f20\u8fbe
p1742
aV\u4f20\u9012
p1743
aV\u4f20\u9012\u51fd\u6570
p1744
aV\u4f26\u6566\u5927\u5b66
p1745
aV\u4f26\u7406\u5b66
p1746
aV\u4f2a\u8ddd
p1747
aV\u4f2f\u4e50
p1748
aV\u4f2f\u514b\u5229\u5206\u6821
p1749
aV\u4f2f\u660e\u7ff0
p1750
aV\u4f30\u8ba1
p1751
aV\u4f34\u968f
p1752
aV\u4f3a\u670d
p1753
aV\u4f3c\u7136
p1754
aV\u4f46\u662f
p1755
aV\u4f4d\u52bf
p1756
aV\u4f4d\u7f6e
p1757
aV\u4f4e\u4e0b
p1758
aV\u4f4e\u5c42\u6b21
p1759
aV\u4f4e\u5e74\u7ea7
p1760
aV\u4f4e\u6210\u672c
p1761
aV\u4f4e\u6536\u76ca
p1762
aV\u4f4e\u7aef
p1763
aV\u4f4f\u5bbf
p1764
aV\u4f4f\u623f
p1765
aV\u4f53\u4f1a
p1766
aV\u4f53\u4f8b
p1767
aV\u4f53\u5236
p1768
aV\u4f53\u6765
p1769
aV\u4f53\u73b0
p1770
aV\u4f53\u7cfb
p1771
aV\u4f53\u7cfb\u7ed3\u6784
p1772
aV\u4f53\u88c1
p1773
aV\u4f53\u9a8c
p1774
aV\u4f55\u79cd
p1775
aV\u4f59\u4f4d
p1776
aV\u4f59\u5e74
p1777
aV\u4f59\u5ea6
p1778
aV\u4f59\u70ed
p1779
aV\u4f59\u79cd
p1780
aV\u4f59\u7bc7
p1781
aV\u4f59\u950b
p1782
aV\u4f59\u95f4
p1783
aV\u4f59\u9879
p1784
aV\u4f5c\u4e1a
p1785
aV\u4f5c\u4e3a
p1786
aV\u4f5c\u51fa
p1787
aV\u4f5c\u54c1
p1788
aV\u4f5c\u5bb6
p1789
aV\u4f5c\u5e8f
p1790
aV\u4f5c\u6218
p1791
aV\u4f5c\u66f2
p1792
aV\u4f5c\u70ba
p1793
aV\u4f5c\u7528
p1794
aV\u4f5c\u8005
p1795
aV\u4f5c\u8005\u7b80\u4ecb
p1796
aV\u4f5c\u98ce
p1797
aV\u4f69\u7279
p1798
aV\u4f7f\u547d
p1799
aV\u4f7f\u5f97
p1800
aV\u4f7f\u6240
p1801
aV\u4f7f\u7528
p1802
aV\u4f7f\u7528\u8005
p1803
aV\u4f84\u5b59
p1804
aV\u4f8b\u5982
p1805
aV\u4f8b\u5b50
p1806
aV\u4f8b\u7a0b
p1807
aV\u4f8b\u8bc1
p1808
aV\u4f8b\u9898
p1809
aV\u4f8f\u7f57\u7eaa
p1810
aV\u4f9b\u5e94
p1811
aV\u4f9b\u5e94\u5546
p1812
aV\u4f9b\u5e94\u94fe
p1813
aV\u4f9b\u7535
p1814
aV\u4f9d\u5b58
p1815
aV\u4f9d\u5b58\u5173\u7cfb
p1816
aV\u4f9d\u636e
p1817
aV\u4f9d\u6b21
p1818
aV\u4f9d\u7136
p1819
aV\u4f9d\u7167
p1820
aV\u4f9d\u8d56
p1821
aV\u4f9d\u8d56\u4e8e
p1822
aV\u4fa6\u5bdf
p1823
aV\u4fa7\u91cd
p1824
aV\u4fa7\u91cd\u4e8e
p1825
aV\u4faf\u4e00\u9e9f
p1826
aV\u4fbf\u4e8e
p1827
aV\u4fc3\u4f7f
p1828
aV\u4fc3\u6210
p1829
aV\u4fc3\u8fdb
p1830
aV\u4fc3\u8fdb\u4f1a
p1831
aV\u4fc4\u6587
p1832
aV\u4fc4\u7f57\u65af
p1833
aV\u4fd7\u8bdd\u8bf4
p1834
aV\u4fdd\u5b58
p1835
aV\u4fdd\u5bc6
p1836
aV\u4fdd\u5bc6\u6027
p1837
aV\u4fdd\u62a4
p1838
aV\u4fdd\u6301
p1839
aV\u4fdd\u7559
p1840
aV\u4fdd\u7f57
p1841
aV\u4fdd\u7f85
p1842
aV\u4fdd\u8bc1
p1843
aV\u4fdd\u8bc1\u6570\u636e
p1844
aV\u4fdd\u9669
p1845
aV\u4fdd\u9669\u4e1a
p1846
aV\u4fdd\u969c
p1847
aV\u4fe1\u4ef6
p1848
aV\u4fe1\u53f7
p1849
aV\u4fe1\u53f7\u5904\u7406
p1850
aV\u4fe1\u53f7\u6e90
p1851
aV\u4fe1\u5f92
p1852
aV\u4fe1\u5ff5
p1853
aV\u4fe1\u606f
p1854
aV\u4fe1\u606f\u5316
p1855
aV\u4fe1\u606f\u5904\u7406
p1856
aV\u4fe1\u606f\u5904\u7406\u7cfb\u7edf
p1857
aV\u4fe1\u606f\u5b66
p1858
aV\u4fe1\u606f\u5b89\u5168
p1859
aV\u4fe1\u606f\u5de5\u7a0b
p1860
aV\u4fe1\u606f\u5e93
p1861
aV\u4fe1\u606f\u6280\u672f
p1862
aV\u4fe1\u606f\u63d0\u53d6
p1863
aV\u4fe1\u606f\u65f6\u4ee3
p1864
aV\u4fe1\u606f\u68c0\u7d22
p1865
aV\u4fe1\u606f\u6d41
p1866
aV\u4fe1\u606f\u71b5
p1867
aV\u4fe1\u606f\u7387
p1868
aV\u4fe1\u606f\u79d1\u5b66
p1869
aV\u4fe1\u606f\u7ba1\u7406
p1870
aV\u4fe1\u606f\u7ba1\u7406\u7cfb\u7edf
p1871
aV\u4fe1\u606f\u7cfb\u7edf
p1872
aV\u4fe1\u606f\u7ed3\u6784
p1873
aV\u4fe1\u606f\u8bba
p1874
aV\u4fe1\u606f\u91cf
p1875
aV\u4fe1\u60a3
p1876
aV\u4fe1\u6e90
p1877
aV\u4fe1\u7528
p1878
aV\u4fe1\u7528\u5361
p1879
aV\u4fe1\u8d56
p1880
aV\u4fe1\u9053
p1881
aV\u4fe1\u9053\u5bb9\u91cf
p1882
aV\u4fe1\u9053\u7f16\u7801
p1883
aV\u4fee\u590d
p1884
aV\u4fee\u6539
p1885
aV\u4fee\u6b63
p1886
aV\u4fee\u8ba2
p1887
aV\u4fee\u8ba2\u7248
p1888
aV\u4fee\u8f9e
p1889
aV\u4fee\u8fad
p1890
aV\u4fef\u9996
p1891
aV\u4ff1\u4e50\u90e8
p1892
aV\u501f\u6b64\u673a\u4f1a
p1893
aV\u501f\u7528
p1894
aV\u501f\u9274
p1895
aV\u5021\u5bfc
p1896
aV\u503c\u5f97
p1897
aV\u503c\u5f97\u4e00\u63d0\u7684\u662f
p1898
aV\u503e\u529b
p1899
aV\u5047\u82e5
p1900
aV\u5047\u8bbe
p1901
aV\u5047\u8bbe\u68c0\u9a8c
p1902
aV\u5047\u8bf4
p1903
aV\u504f\u5dee
p1904
aV\u505a\u51fa
p1905
aV\u505a\u5230
p1906
aV\u505a\u597d
p1907
aV\u505a\u5ba2
p1908
aV\u505a\u6cd5
p1909
aV\u505c\u7535
p1910
aV\u5065\u5eb7
p1911
aV\u5065\u6cbb
p1912
aV\u5076\u5c14
p1913
aV\u5076\u7136
p1914
aV\u5076\u7136\u6027
p1915
aV\u5076\u7136\u8bef\u5dee
p1916
aV\u5085\u4e39
p1917
aV\u5085\u7acb\u53f6
p1918
aV\u5085\u91cc\u53f6
p1919
aV\u50a8\u80fd
p1920
aV\u50ac\u5316
p1921
aV\u512a\u52e2
p1922
aV\u5141\u8bb8
p1923
aV\u5143\u4ef6
p1924
aV\u5143\u5668\u4ef6
p1925
aV\u5143\u7d20
p1926
aV\u5143\u80de
p1927
aV\u5143\u8ba4\u77e5
p1928
aV\u5143\u97f3
p1929
aV\u5143\u9f99
p1930
aV\u5145\u5206
p1931
aV\u5145\u5206\u4f53\u73b0
p1932
aV\u5145\u5206\u5229\u7528
p1933
aV\u5145\u5206\u53cd\u6620
p1934
aV\u5145\u5206\u6761\u4ef6
p1935
aV\u5145\u5206\u8003\u8651
p1936
aV\u5145\u5b9e
p1937
aV\u5145\u6ee1
p1938
aV\u5145\u8db3
p1939
aV\u5148\u524d
p1940
aV\u5148\u540e
p1941
aV\u5148\u6cb3
p1942
aV\u5148\u751f
p1943
aV\u5148\u79e6
p1944
aV\u5148\u8fdb
p1945
aV\u5148\u8fdb\u6027
p1946
aV\u5148\u950b
p1947
aV\u5148\u9a71
p1948
aV\u5148\u9a8c
p1949
aV\u5149\u5b66
p1950
aV\u5149\u654f
p1951
aV\u5149\u6805
p1952
aV\u5149\u6805\u626b\u63cf
p1953
aV\u5149\u6ed1
p1954
aV\u5149\u7167
p1955
aV\u5149\u73af
p1956
aV\u5149\u76d8
p1957
aV\u5149\u7ea4
p1958
aV\u5149\u7ebf
p1959
aV\u5149\u8000
p1960
aV\u514b\u5229
p1961
aV\u514b\u62c9\u9ed8
p1962
aV\u514b\u670d
p1963
aV\u514b\u6797\u514b
p1964
aV\u5165\u4f0d
p1965
aV\u5165\u4fb5
p1966
aV\u5165\u5883
p1967
aV\u5165\u5b66
p1968
aV\u5165\u5b66\u8003\u8bd5
p1969
aV\u5165\u624b
p1970
aV\u5165\u9009
p1971
aV\u5165\u95e8
p1972
aV\u5165\u95e8\u7bc7
p1973
aV\u5165\u9a7b
p1974
aV\u5167\u5916
p1975
aV\u5167\u5bb9
p1976
aV\u5168\u4e09\u518c
p1977
aV\u5168\u4e16\u754c
p1978
aV\u5168\u4e66
p1979
aV\u5168\u4f53
p1980
aV\u5168\u56fd
p1981
aV\u5168\u5c40
p1982
aV\u5168\u6536\u5206
p1983
aV\u5168\u6587
p1984
aV\u5168\u65b0
p1985
aV\u5168\u65b9\u4f4d
p1986
aV\u5168\u65e5\u5236
p1987
aV\u5168\u7403
p1988
aV\u5168\u7403\u5b9a\u4f4d\u7cfb\u7edf
p1989
aV\u5168\u79f0
p1990
aV\u5168\u7a0b
p1991
aV\u5168\u7cfb\u5217
p1992
aV\u5168\u8c8c
p1993
aV\u5168\u8eab\u5fc3
p1994
aV\u5168\u8f74
p1995
aV\u5168\u8fc7\u7a0b
p1996
aV\u5168\u90e8
p1997
aV\u5168\u9762
p1998
aV\u5169\u689d
p1999
aV\u516b\u5c4a\u5168\u56fd\u4eba\u5927
p2000
aV\u516b\u65ec
p2001
aV\u516b\u7ae0
p2002
aV\u516c\u4f17
p2003
aV\u516c\u5171
p2004
aV\u516c\u5171\u4e8b\u52a1
p2005
aV\u516c\u53f8
p2006
aV\u516c\u53f8\u8d22\u52a1
p2007
aV\u516c\u56ed
p2008
aV\u516c\u5f00
p2009
aV\u516c\u5f00\u5bc6\u94a5
p2010
aV\u516c\u5f0f
p2011
aV\u516c\u5f0f\u5316
p2012
aV\u516c\u7406\u5316
p2013
aV\u516c\u8ba4
p2014
aV\u516c\u8def
p2015
aV\u516c\u8def\u7f51
p2016
aV\u516c\u94a5
p2017
aV\u516d\u4e2a
p2018
aV\u516d\u4f4d
p2019
aV\u516d\u5927
p2020
aV\u516d\u6b21
p2021
aV\u516d\u7ae0
p2022
aV\u5171\u4eab
p2023
aV\u5171\u5206
p2024
aV\u5171\u540c
p2025
aV\u5171\u540c\u4f53
p2026
aV\u5171\u6027
p2027
aV\u5171\u6709
p2028
aV\u5171\u8f6d
p2029
aV\u5173\u4e8e
p2030
aV\u5173\u5207
p2031
aV\u5173\u5fc3
p2032
aV\u5173\u6ce8
p2033
aV\u5173\u6ce8\u70b9
p2034
aV\u5173\u7cfb
p2035
aV\u5173\u7cfb\u6570\u636e
p2036
aV\u5173\u7cfb\u6570\u636e\u5e93
p2037
aV\u5173\u8054
p2038
aV\u5173\u8054\u6027
p2039
aV\u5173\u8054\u77e9\u9635
p2040
aV\u5173\u952e
p2041
aV\u5173\u952e\u56e0\u7d20
p2042
aV\u5173\u952e\u6027
p2043
aV\u5173\u952e\u6280\u672f
p2044
aV\u5173\u952e\u65f6\u671f
p2045
aV\u5173\u952e\u70b9
p2046
aV\u5173\u952e\u95ee\u9898
p2047
aV\u5174\u8d77
p2048
aV\u5174\u8da3
p2049
aV\u5175\u5668
p2050
aV\u5176\u4e2d
p2051
aV\u5176\u4ed6
p2052
aV\u5176\u4f59
p2053
aV\u5176\u524d
p2054
aV\u5176\u5b83
p2055
aV\u5176\u5b9e
p2056
aV\u5176\u6b21
p2057
aV\u5177\u4f53
p2058
aV\u5177\u4f53\u5185\u5bb9
p2059
aV\u5177\u4f53\u6027
p2060
aV\u5177\u4f53\u64cd\u4f5c
p2061
aV\u5177\u5907
p2062
aV\u5177\u6709
p2063
aV\u5178\u578b
p2064
aV\u5178\u85cf
p2065
aV\u517c\u4efb
p2066
aV\u517c\u5bb9
p2067
aV\u517c\u5bb9\u6027
p2068
aV\u517c\u6709
p2069
aV\u517c\u804c
p2070
aV\u517c\u987e
p2071
aV\u5185\u529f
p2072
aV\u5185\u5728
p2073
aV\u5185\u5728\u8054\u7cfb
p2074
aV\u5185\u5916
p2075
aV\u5185\u5b58
p2076
aV\u5185\u5bb9
p2077
aV\u5185\u5bb9\u63d0\u8981
p2078
aV\u5185\u5bb9\u6458\u8981
p2079
aV\u5185\u5bb9\u6897\u6982
p2080
aV\u5185\u5bb9\u7b80\u4ecb
p2081
aV\u5185\u5e55
p2082
aV\u5185\u6838
p2083
aV\u5185\u683c\u5c14
p2084
aV\u5185\u6db5
p2085
aV\u5185\u7f6e
p2086
aV\u5185\u8499\u53e4
p2087
aV\u5185\u8499\u53e4\u5927\u5b66
p2088
aV\u5185\u90e8
p2089
aV\u5185\u90e8\u7ed3\u6784
p2090
aV\u5185\u90e8\u7f51
p2091
aV\u5185\u90e8\u8054\u7cfb
p2092
aV\u518d\u7248
p2093
aV\u518d\u73fe
p2094
aV\u518d\u751f
p2095
aV\u518d\u8fdb\u4e00\u6b65
p2096
aV\u5192\u9669
p2097
aV\u5197\u4f59
p2098
aV\u5197\u4f59\u6280\u672f
p2099
aV\u5199\u4f5c
p2100
aV\u5199\u5165
p2101
aV\u5199\u51fa
p2102
aV\u5199\u6210
p2103
aV\u5199\u7ed9
p2104
aV\u519b\u4e8b
p2105
aV\u519b\u4e8b\u79d1\u5b66
p2106
aV\u519b\u7528
p2107
aV\u519b\u961f
p2108
aV\u519c\u573a
p2109
aV\u519c\u6797
p2110
aV\u51a0\u738b
p2111
aV\u51ac\u9752
p2112
aV\u51af\u5bff\u4e1c
p2113
aV\u51af\u5fd7\u4f1f
p2114
aV\u51af\u6653\u5b81
p2115
aV\u51af\u673a
p2116
aV\u51b2\u51fb
p2117
aV\u51b2\u538b
p2118
aV\u51b2\u7a81
p2119
aV\u51b3\u5b9a
p2120
aV\u51b3\u7b56
p2121
aV\u51b3\u7b56\u5206\u6790
p2122
aV\u51b3\u7b56\u5236\u5b9a
p2123
aV\u51b3\u7b56\u652f\u6301\u7cfb\u7edf
p2124
aV\u51b3\u7b56\u6811
p2125
aV\u51b3\u7b56\u8005
p2126
aV\u51b7\u85cf
p2127
aV\u51c0\u5ba4
p2128
aV\u51c6\u5219
p2129
aV\u51c6\u5907
p2130
aV\u51c6\u786e
p2131
aV\u51c6\u786e\u6027
p2132
aV\u51cf\u5c11
p2133
aV\u51cf\u6570\u5206\u88c2
p2134
aV\u51dd\u7ed3
p2135
aV\u51dd\u805a
p2136
aV\u51e0\u4e2a
p2137
aV\u51e0\u4e4e
p2138
aV\u51e0\u4f55
p2139
aV\u51e0\u4f55\u53d8\u6362
p2140
aV\u51e0\u4f55\u56fe\u5f62
p2141
aV\u51e0\u4f55\u5b66
p2142
aV\u51e0\u5341\u4e2a
p2143
aV\u51e0\u5341\u5e74
p2144
aV\u51e0\u5341\u6240
p2145
aV\u51e0\u53e5
p2146
aV\u51e0\u53e5\u8bdd
p2147
aV\u51e0\u5bb6
p2148
aV\u51e0\u5e74
p2149
aV\u51e0\u6240
p2150
aV\u51e0\u70b9
p2151
aV\u51e0\u79cd
p2152
aV\u51e0\u7ae0
p2153
aV\u51e0\u7c7b
p2154
aV\u51e1\u662f
p2155
aV\u51ef\u6069\u65af
p2156
aV\u51f8\u73b0
p2157
aV\u51f9\u51f8
p2158
aV\u51fa\u4e4e
p2159
aV\u51fa\u5165\u53e3
p2160
aV\u51fa\u53bb
p2161
aV\u51fa\u53d1
p2162
aV\u51fa\u53d1\u70b9
p2163
aV\u51fa\u540d
p2164
aV\u51fa\u56fd
p2165
aV\u51fa\u5904
p2166
aV\u51fa\u6765
p2167
aV\u51fa\u7248
p2168
aV\u51fa\u7248\u53d1\u884c
p2169
aV\u51fa\u7248\u7269
p2170
aV\u51fa\u7248\u793e
p2171
aV\u51fa\u7248\u9879
p2172
aV\u51fa\u73b0
p2173
aV\u51fa\u751f
p2174
aV\u51fa\u81f3
p2175
aV\u51fa\u8272
p2176
aV\u51fa\u884c
p2177
aV\u51fd\u6570
p2178
aV\u51fd\u6570\u5e93
p2179
aV\u5206\u4e0a
p2180
aV\u5206\u4e3a
p2181
aV\u5206\u4eab
p2182
aV\u5206\u4ece
p2183
aV\u5206\u4f1a
p2184
aV\u5206\u522b
p2185
aV\u5206\u5272
p2186
aV\u5206\u533a
p2187
aV\u5206\u53d1
p2188
aV\u5206\u578b
p2189
aV\u5206\u5b50
p2190
aV\u5206\u5b50\u751f\u7269\u5b66
p2191
aV\u5206\u5c42
p2192
aV\u5206\u5c94
p2193
aV\u5206\u5e03
p2194
aV\u5206\u5e03\u5f0f
p2195
aV\u5206\u5e03\u5f0f\u5e94\u7528
p2196
aV\u5206\u5e03\u5f0f\u6587\u4ef6\u7cfb\u7edf
p2197
aV\u5206\u5e03\u5f0f\u7cfb\u7edf
p2198
aV\u5206\u5e03\u5f0f\u8ba1\u7b97
p2199
aV\u5206\u5f62
p2200
aV\u5206\u6210
p2201
aV\u5206\u652f
p2202
aV\u5206\u6563
p2203
aV\u5206\u6570
p2204
aV\u5206\u6790
p2205
aV\u5206\u6790\u4eea
p2206
aV\u5206\u6790\u5316\u5b66
p2207
aV\u5206\u6790\u5668
p2208
aV\u5206\u6790\u5e08
p2209
aV\u5206\u6790\u65b9\u6cd5
p2210
aV\u5206\u6790\u6cd5
p2211
aV\u5206\u6821
p2212
aV\u5206\u70b9
p2213
aV\u5206\u79bb
p2214
aV\u5206\u7c7b
p2215
aV\u5206\u7c7b\u5668
p2216
aV\u5206\u7d1a
p2217
aV\u5206\u7ea7
p2218
aV\u5206\u7ec4
p2219
aV\u5206\u7ec4\u7801
p2220
aV\u5206\u7ec4\u8ba8\u8bba
p2221
aV\u5206\u7ef4
p2222
aV\u5206\u8272
p2223
aV\u5206\u88c2
p2224
aV\u5206\u89e3
p2225
aV\u5206\u8bcd
p2226
aV\u5206\u8fa8
p2227
aV\u5206\u8ff0
p2228
aV\u5206\u90e8
p2229
aV\u5206\u91cf
p2230
aV\u5206\u95e8\u522b\u7c7b
p2231
aV\u5206\u9875
p2232
aV\u5207\u5206
p2233
aV\u5207\u524a
p2234
aV\u5207\u5b9e
p2235
aV\u5207\u5b9e\u53ef\u884c
p2236
aV\u5207\u8eab
p2237
aV\u520a\u7269
p2238
aV\u5212\u5206
p2239
aV\u5212\u65f6\u4ee3
p2240
aV\u5212\u6868
p2241
aV\u5217\u4e3a
p2242
aV\u5217\u4e3e
p2243
aV\u5217\u51fa
p2244
aV\u5217\u5b81\u683c\u52d2
p2245
aV\u5217\u5c14\u6d85\u5c14
p2246
aV\u5217\u8868
p2247
aV\u5218\u4e1a\u534e
p2248
aV\u5218\u5174\u5802
p2249
aV\u5218\u656c\u9c81
p2250
aV\u5218\u6c38\u519b
p2251
aV\u5218\u8559
p2252
aV\u521a\u4f53
p2253
aV\u521a\u521a
p2254
aV\u521b\u4e1a
p2255
aV\u521b\u4e1a\u5bb6
p2256
aV\u521b\u4e1a\u8005
p2257
aV\u521b\u4e1a\u9879\u76ee
p2258
aV\u521b\u4f5c
p2259
aV\u521b\u529e
p2260
aV\u521b\u59cb
p2261
aV\u521b\u59cb\u4eba
p2262
aV\u521b\u5efa
p2263
aV\u521b\u5efa\u4eba
p2264
aV\u521b\u65b0
p2265
aV\u521b\u65b0\u80fd\u529b
p2266
aV\u521b\u7acb
p2267
aV\u521b\u9020
p2268
aV\u521b\u9020\u529b
p2269
aV\u521b\u9020\u6027
p2270
aV\u521b\u9020\u6027\u5730
p2271
aV\u521d\u578b
p2272
aV\u521d\u59cb
p2273
aV\u521d\u59cb\u5316
p2274
aV\u521d\u5b66\u8005
p2275
aV\u521d\u6625
p2276
aV\u521d\u671f
p2277
aV\u521d\u6b65
p2278
aV\u521d\u6b65\u8bbe\u8ba1
p2279
aV\u521d\u7248
p2280
aV\u521d\u7a3f
p2281
aV\u521d\u7b49
p2282
aV\u521d\u7ea7
p2283
aV\u521d\u7ea7\u4e2d\u5b66
p2284
aV\u5220\u51cf
p2285
aV\u5220\u53bb
p2286
aV\u5220\u9664
p2287
aV\u5224\u51b3
p2288
aV\u5224\u522b
p2289
aV\u5224\u522b\u51fd\u6570
p2290
aV\u5224\u5b9a
p2291
aV\u5224\u65ad
p2292
aV\u5229\u5668
p2293
aV\u5229\u666e\u5e0c\u8328
p2294
aV\u5229\u7528
p2295
aV\u5229\u7528\u7f51\u7edc
p2296
aV\u5229\u7528\u8ba1\u7b97\u673a
p2297
aV\u5229\u76ca
p2298
aV\u5229\u79d1
p2299
aV\u5230\u5e95
p2300
aV\u5230\u6765
p2301
aV\u5230\u6781\u70b9
p2302
aV\u5230\u8fbe
p2303
aV\u5236\u4f5c
p2304
aV\u5236\u4f5c\u65b9\u6cd5
p2305
aV\u5236\u51b7
p2306
aV\u5236\u5b9a
p2307
aV\u5236\u5bfc
p2308
aV\u5236\u5bfc\u6b66\u5668
p2309
aV\u5236\u5bfc\u7cfb\u7edf
p2310
aV\u5236\u5ea6
p2311
aV\u5236\u8ba2
p2312
aV\u5236\u9020
p2313
aV\u5236\u9020\u4e1a
p2314
aV\u5237\u5237
p2315
aV\u5237\u65b0
p2316
aV\u523a\u6fc0
p2317
aV\u523b\u753b
p2318
aV\u523b\u82e6
p2319
aV\u524d\u4eba
p2320
aV\u524d\u4efb
p2321
aV\u524d\u534a\u90e8
p2322
aV\u524d\u540e
p2323
aV\u524d\u5915
p2324
aV\u524d\u63d0
p2325
aV\u524d\u666f
p2326
aV\u524d\u6cbf
p2327
aV\u524d\u6cbf\u6027
p2328
aV\u524d\u884c
p2329
aV\u524d\u8a00
p2330
aV\u524d\u8eab
p2331
aV\u524d\u9014
p2332
aV\u524d\u94fa
p2333
aV\u524d\u9762
p2334
aV\u524d\u9a71
p2335
aV\u5251\u6865\u5927\u5b66
p2336
aV\u5256\u6790
p2337
aV\u5265\u5f00
p2338
aV\u5267\u4f5c
p2339
aV\u526f\u4e3b\u7f16
p2340
aV\u526f\u6240\u957f
p2341
aV\u526f\u6559\u6388
p2342
aV\u526f\u7406\u4e8b\u957f
p2343
aV\u5272\u88c2
p2344
aV\u5275\u4f5c
p2345
aV\u529b\u4e89
p2346
aV\u529b\u4f5c
p2347
aV\u529b\u56fe
p2348
aV\u529b\u5b66
p2349
aV\u529b\u5b66\u6027\u80fd
p2350
aV\u529b\u6c42
p2351
aV\u529b\u77e9
p2352
aV\u529e\u516c
p2353
aV\u529e\u516c\u81ea\u52a8\u5316
p2354
aV\u529f\u653e
p2355
aV\u529f\u7387
p2356
aV\u529f\u8017
p2357
aV\u529f\u80fd
p2358
aV\u529f\u80fd\u4e3b\u4e49
p2359
aV\u529f\u80fd\u5206\u6790
p2360
aV\u529f\u80fd\u6a21\u5757
p2361
aV\u52a0\u4e4b
p2362
aV\u52a0\u4ee5
p2363
aV\u52a0\u5165
p2364
aV\u52a0\u5229\u798f\u5c3c\u4e9a\u5927\u5b66
p2365
aV\u52a0\u52d2\u6bd4\u6d77
p2366
aV\u52a0\u5bc6
p2367
aV\u52a0\u5bc6\u6280\u672f
p2368
aV\u52a0\u5bc6\u7b97\u6cd5
p2369
aV\u52a0\u5dde\u5927\u5b66
p2370
aV\u52a0\u5dde\u7406\u5de5\u5b66\u9662
p2371
aV\u52a0\u5de5
p2372
aV\u52a0\u5de5\u8fc7\u7a0b
p2373
aV\u52a0\u5f3a
p2374
aV\u52a0\u6027
p2375
aV\u52a0\u62ff\u5927
p2376
aV\u52a0\u62ff\u5927\u591a\u4f26\u591a\u5927\u5b66
p2377
aV\u52a0\u6743
p2378
aV\u52a0\u6cb9\u7ad9
p2379
aV\u52a0\u6df1
p2380
aV\u52a0\u8f7d
p2381
aV\u52a0\u901f
p2382
aV\u52a0\u901f\u5ea6
p2383
aV\u52a0\u901f\u5ea6\u8ba1
p2384
aV\u52a1\u5b9e
p2385
aV\u52a8\u4eba
p2386
aV\u52a8\u529b
p2387
aV\u52a8\u529b\u5b66
p2388
aV\u52a8\u529b\u7cfb\u7edf
p2389
aV\u52a8\u5411
p2390
aV\u52a8\u56e0
p2391
aV\u52a8\u6001
p2392
aV\u52a8\u6001\u53d8\u5316
p2393
aV\u52a8\u6001\u5e73\u8861
p2394
aV\u52a8\u624b
p2395
aV\u52a8\u624b\u505a
p2396
aV\u52a8\u7269
p2397
aV\u52a8\u753b
p2398
aV\u52a8\u8bcd
p2399
aV\u52a9\u52a8\u8bcd
p2400
aV\u52a9\u6559
p2401
aV\u52a9\u7406
p2402
aV\u52a9\u76ca
p2403
aV\u52aa\u529b
p2404
aV\u52b1\u5fd7
p2405
aV\u52b1\u78c1
p2406
aV\u52b3\u52a8
p2407
aV\u52bf\u51fd\u6570
p2408
aV\u52c3\u7f57
p2409
aV\u52d8\u5bdf
p2410
aV\u52d8\u8bef\u8868
p2411
aV\u5305\u542b
p2412
aV\u5305\u5747
p2413
aV\u5305\u62ec
p2414
aV\u5305\u7f57\u4e07\u8c61
p2415
aV\u5305\u88c5
p2416
aV\u5308\u7259\u5229
p2417
aV\u5316\u5b66
p2418
aV\u5316\u5b66\u53cd\u5e94
p2419
aV\u5316\u5de5
p2420
aV\u5316\u5de5\u5b66\u9662
p2421
aV\u5316\u7e41\u4e3a\u7b80
p2422
aV\u5316\u800c
p2423
aV\u5317\u4eac
p2424
aV\u5317\u4eac\u4fe1\u606f\u5de5\u7a0b\u5b66\u9662
p2425
aV\u5317\u4eac\u5370\u5237\u5b66\u9662
p2426
aV\u5317\u4eac\u5927\u5b66
p2427
aV\u5317\u4eac\u5927\u5b66\u5386\u53f2\u7cfb
p2428
aV\u5317\u4eac\u5927\u5b66\u793e\u4f1a\u5b66\u7cfb
p2429
aV\u5317\u4eac\u5e02
p2430
aV\u5317\u4eac\u90ae\u7535\u5927\u5b66
p2431
aV\u5317\u6597
p2432
aV\u5317\u7f8e
p2433
aV\u5317\u822a
p2434
aV\u5320\u5fc3\u72ec\u5177
p2435
aV\u5339\u914d
p2436
aV\u533a\u5206
p2437
aV\u533a\u522b
p2438
aV\u533a\u57df
p2439
aV\u533a\u57df\u5206\u5272
p2440
aV\u533a\u57df\u79d1\u5b66
p2441
aV\u533a\u95f4
p2442
aV\u533b\u5b66
p2443
aV\u533b\u5b66\u5f71\u50cf
p2444
aV\u533b\u65b9
p2445
aV\u533b\u751f
p2446
aV\u533b\u7597
p2447
aV\u533b\u79d1\u5927\u5b66
p2448
aV\u533b\u836f
p2449
aV\u533b\u836f\u536b\u751f
p2450
aV\u5341\u4e00\u4e94
p2451
aV\u5341\u4e00\u7ae0
p2452
aV\u5341\u4e03\u4e16\u7eaa
p2453
aV\u5341\u4e09
p2454
aV\u5341\u4e24
p2455
aV\u5341\u4e8c\u4e94
p2456
aV\u5341\u4e8c\u7ae0
p2457
aV\u5341\u4e94
p2458
aV\u5341\u516d\u7ae0
p2459
aV\u5341\u51e0\u5e74
p2460
aV\u5341\u51e0\u5e74\u6765
p2461
aV\u5341\u5206
p2462
aV\u5341\u5206\u9ad8\u5174
p2463
aV\u5341\u56db\u9879
p2464
aV\u5341\u591a\u5e74
p2465
aV\u5341\u5927
p2466
aV\u5341\u5e74
p2467
aV\u5341\u7ae0
p2468
aV\u5341\u8f7d
p2469
aV\u5343\u91cc
p2470
aV\u5347\u534e
p2471
aV\u5347\u7ea7
p2472
aV\u534a\u4e2a\u4e16\u7eaa
p2473
aV\u534a\u5bfc\u4f53
p2474
aV\u534a\u5bfc\u4f53\u5b58\u50a8\u5668
p2475
aV\u534e\u4e1c
p2476
aV\u534e\u4e1c\u5e08\u5927
p2477
aV\u534e\u4e2d\u79d1\u6280\u5927\u5b66
p2478
aV\u534e\u4e3a
p2479
aV\u534e\u5317\u5927\u5b66
p2480
aV\u534e\u5357\u5e08\u5927
p2481
aV\u534e\u5c14\u8857\u65e5\u62a5
p2482
aV\u534f\u4f1a
p2483
aV\u534f\u4f5c
p2484
aV\u534f\u540c
p2485
aV\u534f\u540c\u5b66
p2486
aV\u534f\u540c\u5de5\u4f5c
p2487
aV\u534f\u8bae
p2488
aV\u534f\u8c03
p2489
aV\u534f\u8c03\u63a7\u5236
p2490
aV\u5353\u8d8a
p2491
aV\u5355\u4e00
p2492
aV\u5355\u4f4d
p2493
aV\u5355\u5143
p2494
aV\u5355\u5143\u6d4b\u8bd5
p2495
aV\u5355\u5200\u76f4\u5165
p2496
aV\u5355\u5708
p2497
aV\u5355\u5c42
p2498
aV\u5355\u673a
p2499
aV\u5355\u677f
p2500
aV\u5355\u70b9
p2501
aV\u5355\u7247\u673a
p2502
aV\u5355\u72ec
p2503
aV\u5355\u7eaf
p2504
aV\u5355\u7eaf\u5f62
p2505
aV\u5355\u8bcd
p2506
aV\u5355\u8f74
p2507
aV\u5357\u52a0\u5dde
p2508
aV\u5357\u5b89
p2509
aV\u535a\u5229
p2510
aV\u535a\u571f
p2511
aV\u535a\u58eb
p2512
aV\u535a\u58eb\u540e
p2513
aV\u535a\u58eb\u5b66\u4f4d
p2514
aV\u535a\u58eb\u751f
p2515
aV\u535a\u5ba2
p2516
aV\u535a\u5f08
p2517
aV\u535a\u5f08\u8bba
p2518
aV\u535a\u6b47\u5956
p2519
aV\u535a\u767b
p2520
aV\u535a\u89c8
p2521
aV\u535c\u6d77\u5175
p2522
aV\u5361\u5185\u57fa
p2523
aV\u5361\u53ca
p2524
aV\u5361\u53f7
p2525
aV\u5361\u5c14
p2526
aV\u5361\u5c14\u66fc
p2527
aV\u5361\u5c14\u66fc\u6ee4\u6ce2
p2528
aV\u5361\u6587\u8fea\u8bb8
p2529
aV\u5361\u65af\u7279
p2530
aV\u5361\u666e\u5170
p2531
aV\u5361\u7279
p2532
aV\u5361\u8010\u57fa
p2533
aV\u5361\u9a6c\u62c9
p2534
aV\u5362\u66fc
p2535
aV\u536b\u661f
p2536
aV\u536b\u661f\u5e7f\u64ad
p2537
aV\u536b\u661f\u901a\u4fe1
p2538
aV\u536b\u7406\u516c\u4f1a
p2539
aV\u5370\u5237
p2540
aV\u5370\u5237\u4f53
p2541
aV\u5370\u5237\u9519\u8bef
p2542
aV\u5370\u524d
p2543
aV\u5370\u5802
p2544
aV\u5370\u5ea6
p2545
aV\u5370\u5ea6\u7406\u5de5\u5b66\u9662
p2546
aV\u5370\u5f20
p2547
aV\u5370\u6570
p2548
aV\u5370\u6b21
p2549
aV\u5370\u6c5f
p2550
aV\u5370\u7b2c\u5b89\u7eb3
p2551
aV\u5370\u8bb0
p2552
aV\u5371\u5bb3
p2553
aV\u5371\u673a
p2554
aV\u5371\u9669
p2555
aV\u5373\u4f7f
p2556
aV\u5373\u4fbf
p2557
aV\u5373\u53ef
p2558
aV\u5373\u65f6
p2559
aV\u5373\u7531\u5bf9
p2560
aV\u5374\u662f
p2561
aV\u5374\u672a
p2562
aV\u5377\u4e0a
p2563
aV\u5377\u672c
p2564
aV\u5386\u4efb
p2565
aV\u5386\u53f2
p2566
aV\u5386\u53f2\u552f\u7269\u4e3b\u4e49
p2567
aV\u5386\u53f2\u60a0\u4e45
p2568
aV\u5386\u53f2\u6587\u732e
p2569
aV\u5386\u53f2\u7cfb
p2570
aV\u5386\u53f2\u80cc\u666f
p2571
aV\u5386\u53f2\u89c2
p2572
aV\u5386\u5e74
p2573
aV\u5386\u65f6
p2574
aV\u5386\u7a0b
p2575
aV\u538b\u529b
p2576
aV\u538b\u7f29
p2577
aV\u539a\u58c1
p2578
aV\u539f\u4e66
p2579
aV\u539f\u5219
p2580
aV\u539f\u56e0
p2581
aV\u539f\u578b
p2582
aV\u539f\u578b\u8bf4
p2583
aV\u539f\u59cb
p2584
aV\u539f\u5b50
p2585
aV\u539f\u6587
p2586
aV\u539f\u6765
p2587
aV\u539f\u7248
p2588
aV\u539f\u7248\u4e66
p2589
aV\u539f\u7406
p2590
aV\u539f\u7406\u56fe
p2591
aV\u539f\u8457
p2592
aV\u53a6\u95e8\u5927\u5b66
p2593
aV\u53c2\u4e0e
p2594
aV\u53c2\u4e0e\u8005
p2595
aV\u53c2\u52a0
p2596
aV\u53c2\u6570
p2597
aV\u53c2\u6570\u4f30\u8ba1
p2598
aV\u53c2\u6570\u68c0\u9a8c
p2599
aV\u53c2\u7167
p2600
aV\u53c2\u7167\u7cfb
p2601
aV\u53c2\u8003
p2602
aV\u53c2\u8003\u4e66
p2603
aV\u53c2\u8003\u4ef7\u503c
p2604
aV\u53c2\u8003\u624b\u518c
p2605
aV\u53c2\u8003\u6587\u732e
p2606
aV\u53c2\u8003\u7b54\u6848
p2607
aV\u53c2\u8003\u8d44\u6599
p2608
aV\u53c2\u89c1
p2609
aV\u53c2\u91cf
p2610
aV\u53c2\u9605
p2611
aV\u53ca\u5176
p2612
aV\u53ca\u52a8
p2613
aV\u53ca\u65f6
p2614
aV\u53cb\u8c0a
p2615
aV\u53cc\u5708
p2616
aV\u53cc\u57fa
p2617
aV\u53cc\u661f
p2618
aV\u53cc\u6838
p2619
aV\u53cc\u7ebf\u6027
p2620
aV\u53cc\u8054
p2621
aV\u53cc\u8bed
p2622
aV\u53cc\u8bed\u7248
p2623
aV\u53cc\u8f74
p2624
aV\u53cc\u91cd
p2625
aV\u53cd\u54cd
p2626
aV\u53cd\u590d
p2627
aV\u53cd\u5e94
p2628
aV\u53cd\u6620
p2629
aV\u53cd\u6f14
p2630
aV\u53cd\u7f16\u8bd1
p2631
aV\u53cd\u9988
p2632
aV\u53cd\u9988\u7cfb\u7edf
p2633
aV\u53d1\u4e8e
p2634
aV\u53d1\u4eba\u6df1\u7701
p2635
aV\u53d1\u58f0
p2636
aV\u53d1\u5c04
p2637
aV\u53d1\u5c55
p2638
aV\u53d1\u5c55\u524d\u666f
p2639
aV\u53d1\u5c55\u53f2
p2640
aV\u53d1\u5c55\u89c2
p2641
aV\u53d1\u5c55\u8d8b\u52bf
p2642
aV\u53d1\u5e03
p2643
aV\u53d1\u626c
p2644
aV\u53d1\u6325
p2645
aV\u53d1\u6563
p2646
aV\u53d1\u660e
p2647
aV\u53d1\u660e\u4eba
p2648
aV\u53d1\u70e7\u53cb
p2649
aV\u53d1\u73b0
p2650
aV\u53d1\u751f
p2651
aV\u53d1\u751f\u5b66
p2652
aV\u53d1\u7535
p2653
aV\u53d1\u7535\u673a
p2654
aV\u53d1\u75c5
p2655
aV\u53d1\u884c
p2656
aV\u53d1\u8868
p2657
aV\u53d1\u8d77
p2658
aV\u53d1\u8d77\u4eba
p2659
aV\u53d1\u9001
p2660
aV\u53d1\u97f3
p2661
aV\u53d1\u97f3\u5668\u5b98
p2662
aV\u53d6\u5411
p2663
aV\u53d6\u5f97
p2664
aV\u53d6\u6750
p2665
aV\u53d6\u820d
p2666
aV\u53d7\u5230
p2667
aV\u53d7\u60e0
p2668
aV\u53d7\u63a7\u5bf9\u8c61
p2669
aV\u53d7\u6b22\u8fce
p2670
aV\u53d7\u76ca
p2671
aV\u53d7\u9080
p2672
aV\u53d8\u5143
p2673
aV\u53d8\u52a8
p2674
aV\u53d8\u5316
p2675
aV\u53d8\u5316\u8d8b\u52bf
p2676
aV\u53d8\u538b\u5668
p2677
aV\u53d8\u5e8f
p2678
aV\u53d8\u5f02
p2679
aV\u53d8\u5f97
p2680
aV\u53d8\u6210
p2681
aV\u53d8\u6362
p2682
aV\u53d8\u6362\u5668
p2683
aV\u53d8\u6d41\u5668
p2684
aV\u53d8\u79cd
p2685
aV\u53d8\u914d\u7535
p2686
aV\u53d8\u91cf
p2687
aV\u53d8\u9769
p2688
aV\u53d8\u9769\u6027
p2689
aV\u53d9\u8ff0
p2690
aV\u53e3\u53f7
p2691
aV\u53e3\u5934
p2692
aV\u53e3\u8bed
p2693
aV\u53e4\u5178
p2694
aV\u53e4\u8001
p2695
aV\u53e5\u578b
p2696
aV\u53e5\u578b\u5206\u6790
p2697
aV\u53e5\u5b50
p2698
aV\u53e5\u5f0f
p2699
aV\u53e5\u6cd5
p2700
aV\u53e5\u6cd5\u5206\u6790
p2701
aV\u53e5\u6cd5\u6811
p2702
aV\u53e5\u6cd5\u7ed3\u6784
p2703
aV\u53e5\u7c7b
p2704
aV\u53e6\u4e00\u65b9\u9762
p2705
aV\u53e6\u5916
p2706
aV\u53ea\u662f
p2707
aV\u53ea\u6709
p2708
aV\u53ea\u80fd
p2709
aV\u53ea\u8981
p2710
aV\u53ef\u4e3a
p2711
aV\u53ef\u4ee5
p2712
aV\u53ef\u4f9b
p2713
aV\u53ef\u4fe1
p2714
aV\u53ef\u5224\u5b9a\u6027
p2715
aV\u53ef\u559c\u53ef\u8d3a
p2716
aV\u53ef\u5faa
p2717
aV\u53ef\u6267\u884c\u7a0b\u5e8f
p2718
aV\u53ef\u6269\u5c55\u6027
p2719
aV\u53ef\u62d3
p2720
aV\u53ef\u63a7
p2721
aV\u53ef\u64cd\u4f5c\u6027
p2722
aV\u53ef\u656c
p2723
aV\u53ef\u6d4b\u6027
p2724
aV\u53ef\u7528
p2725
aV\u53ef\u7528\u6027
p2726
aV\u53ef\u79fb\u690d
p2727
aV\u53ef\u7f16\u7a0b
p2728
aV\u53ef\u80fd
p2729
aV\u53ef\u80fd\u6027
p2730
aV\u53ef\u884c
p2731
aV\u53ef\u884c\u6027
p2732
aV\u53ef\u884c\u65b9\u5411
p2733
aV\u53ef\u89c6
p2734
aV\u53ef\u89c6\u5316
p2735
aV\u53ef\u8ba1\u7b97\u6027
p2736
aV\u53ef\u8bf4\u662f
p2737
aV\u53ef\u8bfb\u6027
p2738
aV\u53ef\u9760
p2739
aV\u53ef\u9760\u6027
p2740
aV\u53ef\u9884\u6d4b\u6027
p2741
aV\u53ef\u98de
p2742
aV\u53f0\u6e7e
p2743
aV\u53f0\u6e7e\u5730\u533a
p2744
aV\u53f2\u4e4b
p2745
aV\u53f2\u5b66
p2746
aV\u53f2\u8bd7
p2747
aV\u53f6\u5176\u6cf0
p2748
aV\u53f8\u6cd5\u89e3\u91ca
p2749
aV\u5403\u900f
p2750
aV\u5404\u4e2a
p2751
aV\u5404\u4e2a\u65b9\u9762
p2752
aV\u5404\u4e2a\u7cfb\u7edf
p2753
aV\u5404\u4e2a\u9886\u57df
p2754
aV\u5404\u5904
p2755
aV\u5404\u5c42\u6b21
p2756
aV\u5404\u754c
p2757
aV\u5404\u7701
p2758
aV\u5404\u79cd
p2759
aV\u5404\u79cd\u5404\u6837
p2760
aV\u5404\u79cd\u7c7b\u578b
p2761
aV\u5404\u7ae0
p2762
aV\u5404\u7c7b
p2763
aV\u5404\u7ea7
p2764
aV\u5404\u8003\u70b9
p2765
aV\u5404\u81ea
p2766
aV\u5404\u884c\u5404\u4e1a
p2767
aV\u5404\u9879
p2768
aV\u5408\u4e00
p2769
aV\u5408\u4f19\u4eba
p2770
aV\u5408\u4f5c
p2771
aV\u5408\u4f5c\u9879\u76ee
p2772
aV\u5408\u540c\u6cd5
p2773
aV\u5408\u5e76
p2774
aV\u5408\u6210
p2775
aV\u5408\u6d41
p2776
aV\u5408\u7406
p2777
aV\u5408\u7406\u5b89\u6392
p2778
aV\u5408\u7406\u6027
p2779
aV\u5408\u8457
p2780
aV\u5408\u9002
p2781
aV\u540c\u4e00
p2782
aV\u540c\u4e49
p2783
aV\u540c\u4e49\u8bcd
p2784
aV\u540c\u4ec1
p2785
aV\u540c\u578b
p2786
aV\u540c\u5b66
p2787
aV\u540c\u5f62
p2788
aV\u540c\u5fd7
p2789
aV\u540c\u6307
p2790
aV\u540c\u65f6
p2791
aV\u540c\u6837
p2792
aV\u540c\u6b65
p2793
aV\u540c\u6b65\u5316
p2794
aV\u540c\u7c7b
p2795
aV\u540c\u884c
p2796
aV\u540c\u8c31
p2797
aV\u540d\u4e3a
p2798
aV\u540d\u5355
p2799
aV\u540d\u5bb6
p2800
aV\u540d\u626c\u5929\u4e0b
p2801
aV\u540d\u79f0
p2802
aV\u540d\u7bc7
p2803
aV\u540d\u8457
p2804
aV\u540d\u8a00
p2805
aV\u540d\u8a89\u6559\u6388
p2806
aV\u540d\u8bcd
p2807
aV\u540d\u8bcd\u672f\u8bed
p2808
aV\u540d\u989d
p2809
aV\u540e\u4e09
p2810
aV\u540e\u534a
p2811
aV\u540e\u53f0
p2812
aV\u540e\u6765
p2813
aV\u540e\u751f
p2814
aV\u540e\u7ee7
p2815
aV\u540e\u7eed
p2816
aV\u540e\u8bb0
p2817
aV\u540e\u9762
p2818
aV\u5411\u524d
p2819
aV\u5411\u91cf
p2820
aV\u542b\u4e49
p2821
aV\u542b\u65f6
p2822
aV\u542b\u6709
p2823
aV\u542b\u7cca
p2824
aV\u542b\u7fa9
p2825
aV\u542c\u4e0d\u89c1
p2826
aV\u542c\u61c2
p2827
aV\u542c\u89c9
p2828
aV\u542f\u52a8
p2829
aV\u542f\u53d1
p2830
aV\u542f\u53d1\u5f0f
p2831
aV\u542f\u53d1\u6027
p2832
aV\u542f\u793a
p2833
aV\u542f\u793a\u5f55
p2834
aV\u542f\u8fea
p2835
aV\u5434\u4e39
p2836
aV\u5434\u4e39\u8bd1
p2837
aV\u5434\u6587\u4fca
p2838
aV\u5434\u7ade\u660c
p2839
aV\u5438\u53d6
p2840
aV\u5438\u5f15
p2841
aV\u5438\u5f15\u529b
p2842
aV\u5438\u6536
p2843
aV\u5438\u7eb3
p2844
aV\u543b\u5408
p2845
aV\u5448\u73b0
p2846
aV\u5448\u73b0\u51fa
p2847
aV\u544a\u8bc9
p2848
aV\u5468\u62a5
p2849
aV\u5468\u671f
p2850
aV\u5468\u671f\u6027
p2851
aV\u5468\u671f\u6027\u5730
p2852
aV\u547c\u53eb
p2853
aV\u547c\u548c\u6d69\u7279\u5e02
p2854
aV\u547d\u4e2d\u7387
p2855
aV\u547d\u4ee4
p2856
aV\u547d\u540d
p2857
aV\u547d\u9898
p2858
aV\u547d\u9898\u903b\u8f91
p2859
aV\u548c\u5143
p2860
aV\u548c\u53bf
p2861
aV\u548c\u5f39
p2862
aV\u548c\u6b21
p2863
aV\u548c\u6cd5
p2864
aV\u548c\u739b\u4e3d
p2865
aV\u548c\u8c10
p2866
aV\u548c\u96b9\u606f
p2867
aV\u548c\u97f3\u5ef6
p2868
aV\u548c\u9c81\u68d2
p2869
aV\u54a8\u8be2
p2870
aV\u54c1\u724c
p2871
aV\u54c8\u4f5b
p2872
aV\u54c8\u4f5b\u5927\u5b66
p2873
aV\u54c8\u5bc6\u5c14\u987f
p2874
aV\u54c8\u5c14\u6ee8\u5de5\u4e1a\u5927\u5b66
p2875
aV\u54c8\u5f97\u5b59
p2876
aV\u54c8\u80af
p2877
aV\u54c8\u91cc
p2878
aV\u54e5\u4f26\u6bd4\u4e9a
p2879
aV\u54e5\u4f26\u6bd4\u4e9a\u5927\u5b66
p2880
aV\u54ea\u4e9b
p2881
aV\u54ea\u91cc
p2882
aV\u54f2\u5b66
p2883
aV\u54f2\u5b66\u53f2
p2884
aV\u54f2\u5b66\u5bb6
p2885
aV\u54f2\u5b66\u601d\u60f3
p2886
aV\u54f2\u5b66\u8303\u7574
p2887
aV\u5510\u5c11\u6770
p2888
aV\u5510\u6653\u5cf0
p2889
aV\u552f\u4e00
p2890
aV\u552f\u7269\u8bba
p2891
aV\u5546\u4e1a
p2892
aV\u5546\u4e1a\u4ef7\u503c
p2893
aV\u5546\u4e1a\u5316
p2894
aV\u5546\u4e1a\u667a\u80fd
p2895
aV\u5546\u54c1\u5316
p2896
aV\u5546\u7528
p2897
aV\u5546\u7528\u5316
p2898
aV\u554f\u984c
p2899
aV\u5564\u9152
p2900
aV\u5584\u4e8e
p2901
aV\u5584\u8bf1
p2902
aV\u559c\u7231
p2903
aV\u5609\u9675\u6c5f
p2904
aV\u5668\u4ef6
p2905
aV\u5668\u5b98
p2906
aV\u566a\u58f0
p2907
aV\u56db\u4e2a
p2908
aV\u56db\u4eba
p2909
aV\u56db\u4f4d
p2910
aV\u56db\u5143
p2911
aV\u56db\u5904
p2912
aV\u56db\u5927
p2913
aV\u56db\u5c04
p2914
aV\u56db\u672c
p2915
aV\u56db\u7ae0
p2916
aV\u56db\u7bc7
p2917
aV\u56db\u7c7b
p2918
aV\u56de\u5230
p2919
aV\u56de\u5f52
p2920
aV\u56de\u6536
p2921
aV\u56de\u653e
p2922
aV\u56de\u6821
p2923
aV\u56de\u6eaf
p2924
aV\u56de\u7b54
p2925
aV\u56de\u8def
p2926
aV\u56de\u9000
p2927
aV\u56de\u987e
p2928
aV\u56e0\u4e3a
p2929
aV\u56e0\u5176
p2930
aV\u56e0\u5b50
p2931
aV\u56e0\u5b50\u5206\u6790
p2932
aV\u56e0\u6570\u5206\u89e3
p2933
aV\u56e0\u679c
p2934
aV\u56e0\u679c\u5173\u7cfb
p2935
aV\u56e0\u679c\u6027
p2936
aV\u56e0\u6b64
p2937
aV\u56e0\u7279\u7f51
p2938
aV\u56e0\u7d20
p2939
aV\u56e0\u800c
p2940
aV\u56e2\u4f53
p2941
aV\u56e2\u7ed3
p2942
aV\u56e2\u961f
p2943
aV\u56f0\u5883
p2944
aV\u56f0\u60d1
p2945
aV\u56f0\u6270
p2946
aV\u56f0\u96be
p2947
aV\u56f4\u5899
p2948
aV\u56f4\u754c
p2949
aV\u56f4\u7ed5
p2950
aV\u56fa\u4f53
p2951
aV\u56fa\u5316
p2952
aV\u56fa\u5b88
p2953
aV\u56fa\u5b9a
p2954
aV\u56fa\u6709
p2955
aV\u56fa\u7136
p2956
aV\u56fd\u4ea7\u624b\u673a
p2957
aV\u56fd\u5185
p2958
aV\u56fd\u5185\u5916
p2959
aV\u56fd\u52a1\u9662
p2960
aV\u56fd\u5916
p2961
aV\u56fd\u5b9d\u7ea7
p2962
aV\u56fd\u5bb6
p2963
aV\u56fd\u5bb6\u6559\u59d4
p2964
aV\u56fd\u5bb6\u6559\u80b2\u90e8
p2965
aV\u56fd\u5bb6\u79d1\u6280\u8fdb\u6b65\u5956
p2966
aV\u56fd\u5bb6\u7ea7
p2967
aV\u56fd\u5bb6\u81ea\u7136\u79d1\u5b66\u57fa\u91d1
p2968
aV\u56fd\u5bb6\u81ea\u7136\u79d1\u5b66\u5956
p2969
aV\u56fd\u6c11\u7ecf\u6d4e
p2970
aV\u56fd\u8ba1\u6c11\u751f
p2971
aV\u56fd\u9053
p2972
aV\u56fd\u9632
p2973
aV\u56fd\u9645
p2974
aV\u56fd\u9645\u578b
p2975
aV\u56fd\u9645\u6807\u51c6
p2976
aV\u56fd\u9645\u7ea7
p2977
aV\u56fe\u4e66
p2978
aV\u56fe\u4e66\u5956
p2979
aV\u56fe\u4e66\u9986
p2980
aV\u56fe\u4f8b
p2981
aV\u56fe\u50cf
p2982
aV\u56fe\u50cf\u53bb\u566a
p2983
aV\u56fe\u50cf\u5904\u7406
p2984
aV\u56fe\u50cf\u8bc6\u522b
p2985
aV\u56fe\u5143
p2986
aV\u56fe\u518c
p2987
aV\u56fe\u5f0f
p2988
aV\u56fe\u5f62
p2989
aV\u56fe\u5f62\u5316
p2990
aV\u56fe\u5f62\u56fe\u50cf
p2991
aV\u56fe\u5f62\u5904\u7406
p2992
aV\u56fe\u5f62\u5b66
p2993
aV\u56fe\u5f62\u6587\u4ef6
p2994
aV\u56fe\u5f62\u7528\u6237\u754c\u9762
p2995
aV\u56fe\u5f62\u754c\u9762
p2996
aV\u56fe\u5f62\u7cfb\u7edf
p2997
aV\u56fe\u6587\u5e76\u8302
p2998
aV\u56fe\u6848
p2999
aV\u56fe\u7075
p3000
aV\u56fe\u7075\u5956
p3001
aV\u56fe\u7075\u673a
p3002
aV\u56fe\u7247
p3003
aV\u56fe\u793a
p3004
aV\u56fe\u7c7b
p3005
aV\u56fe\u8868
p3006
aV\u56fe\u89e3
p3007
aV\u56fe\u8bba
p3008
aV\u56fe\u8c31
p3009
aV\u56fe\u8c61
p3010
aV\u56fe\u8c61\u589e\u5f3a
p3011
aV\u56fe\u8c61\u5904\u7406
p3012
aV\u56fe\u96c6
p3013
aV\u5706\u67f1
p3014
aV\u5706\u9525
p3015
aV\u571f\u5efa
p3016
aV\u571f\u7a0b
p3017
aV\u5723\u7ecf
p3018
aV\u5728\u4e8e
p3019
aV\u5728\u5185
p3020
aV\u5728\u5b9e\u8df5\u4e2d
p3021
aV\u5728\u6240\u96be\u514d
p3022
aV\u5728\u6821
p3023
aV\u5728\u6b64\u4e4b\u524d
p3024
aV\u5728\u7ebf
p3025
aV\u5730\u4e0b\u7ba1\u9053
p3026
aV\u5730\u4f4d
p3027
aV\u5730\u533a\u6027
p3028
aV\u5730\u540d
p3029
aV\u5730\u56fe
p3030
aV\u5730\u56fe\u96c6
p3031
aV\u5730\u5740
p3032
aV\u5730\u5b66
p3033
aV\u5730\u5f62\u5339\u914d
p3034
aV\u5730\u65b9
p3035
aV\u5730\u65b9\u4e3b\u4e49
p3036
aV\u5730\u70b9
p3037
aV\u5730\u7403
p3038
aV\u5730\u7403\u79d1\u5b66
p3039
aV\u5730\u7406
p3040
aV\u5730\u7406\u4fe1\u606f\u7cfb\u7edf
p3041
aV\u5730\u7406\u5b66
p3042
aV\u5730\u7406\u7cfb
p3043
aV\u5730\u9762
p3044
aV\u573a\u666f
p3045
aV\u5747\u65b9
p3046
aV\u5747\u8861
p3047
aV\u5747\u8861\u5668
p3048
aV\u5750\u6807
p3049
aV\u5750\u6807\u7cfb
p3050
aV\u575a\u5b9e
p3051
aV\u575a\u6301
p3052
aV\u575a\u679c
p3053
aV\u578b\u53f7
p3054
aV\u578b\u5757
p3055
aV\u578b\u7535\u8111
p3056
aV\u578b\u8154
p3057
aV\u57c3\u6717\u6839
p3058
aV\u57c3\u8389\u8bfa
p3059
aV\u57ce\u4e61
p3060
aV\u57ce\u5e02
p3061
aV\u57ce\u5e02\u4ea4\u901a
p3062
aV\u57ce\u5e02\u5730\u56fe
p3063
aV\u57df\u4e0a
p3064
aV\u57f9\u517b
p3065
aV\u57f9\u80b2
p3066
aV\u57f9\u8bad
p3067
aV\u57f9\u8bad\u6559\u6750
p3068
aV\u57f9\u8bad\u73ed
p3069
aV\u57fa\u4e3a
p3070
aV\u57fa\u4e8e
p3071
aV\u57fa\u5143
p3072
aV\u57fa\u51c6
p3073
aV\u57fa\u56e0
p3074
aV\u57fa\u5c3c
p3075
aV\u57fa\u5ea7
p3076
aV\u57fa\u672c
p3077
aV\u57fa\u672c\u4e00\u81f4
p3078
aV\u57fa\u672c\u539f\u7406
p3079
aV\u57fa\u672c\u601d\u8def
p3080
aV\u57fa\u672c\u6280\u80fd
p3081
aV\u57fa\u672c\u64cd\u4f5c
p3082
aV\u57fa\u672c\u6982\u5ff5
p3083
aV\u57fa\u672c\u77db\u76fe
p3084
aV\u57fa\u672c\u77e5\u8bc6
p3085
aV\u57fa\u77f3
p3086
aV\u57fa\u7840
p3087
aV\u57fa\u7840\u6027
p3088
aV\u57fa\u7840\u6559\u7a0b
p3089
aV\u57fa\u7840\u7406\u8bba
p3090
aV\u57fa\u7840\u77e5\u8bc6
p3091
aV\u57fa\u7840\u8bfe
p3092
aV\u57fa\u91d1
p3093
aV\u57fa\u91d1\u4f1a
p3094
aV\u57fa\u91d1\u9879\u76ee
p3095
aV\u5802\u5f1f
p3096
aV\u5851\u6599\u4ef6
p3097
aV\u5854\u5c14
p3098
aV\u586b\u62a5
p3099
aV\u586b\u8865
p3100
aV\u586b\u8c37
p3101
aV\u589e\u503c
p3102
aV\u589e\u5220
p3103
aV\u589e\u52a0
p3104
aV\u589e\u5f3a
p3105
aV\u589e\u8865
p3106
aV\u589e\u8ba2
p3107
aV\u589e\u91cf
p3108
aV\u589e\u957f
p3109
aV\u589e\u957f\u7387
p3110
aV\u58a8\u897f\u54e5
p3111
aV\u58ee\u4e3d
p3112
aV\u58f0\u5361
p3113
aV\u58f0\u5450
p3114
aV\u58f0\u5b66
p3115
aV\u58f0\u6ce2
p3116
aV\u58f0\u8c31
p3117
aV\u5904\u4e8e
p3118
aV\u5904\u7406
p3119
aV\u5904\u7406\u5355\u5143
p3120
aV\u5904\u7406\u5668
p3121
aV\u5904\u7406\u7ed3\u679c
p3122
aV\u5904\u7406\u8fc7\u7a0b
p3123
aV\u5907\u4efd
p3124
aV\u5907\u53d7
p3125
aV\u5907\u8bfe
p3126
aV\u590d\u4e60
p3127
aV\u590d\u4e60\u8d44\u6599
p3128
aV\u590d\u4e60\u9898
p3129
aV\u590d\u5236
p3130
aV\u590d\u534e
p3131
aV\u590d\u5408
p3132
aV\u590d\u6570
p3133
aV\u590d\u6742
p3134
aV\u590d\u6742\u5316
p3135
aV\u590d\u6742\u5ea6
p3136
aV\u590d\u6742\u6027
p3137
aV\u590d\u82cf
p3138
aV\u590f\u5a01\u5937
p3139
aV\u5916\u5411\u578b
p3140
aV\u5916\u56f4
p3141
aV\u5916\u56f4\u8bbe\u5907
p3142
aV\u5916\u56fd\u8bed
p3143
aV\u5916\u6302
p3144
aV\u5916\u6587
p3145
aV\u5916\u754c
p3146
aV\u5916\u7c4d
p3147
aV\u5916\u89c2
p3148
aV\u5916\u8bbe
p3149
aV\u5916\u90e8
p3150
aV\u5916\u90e8\u8bbe\u5907
p3151
aV\u591a\u4e2a
p3152
aV\u591a\u4e49
p3153
aV\u591a\u4efb\u52a1
p3154
aV\u591a\u4f4d
p3155
aV\u591a\u5143\u5316
p3156
aV\u591a\u529f\u80fd
p3157
aV\u591a\u53f0
p3158
aV\u591a\u53f0\u8ba1\u7b97\u673a
p3159
aV\u591a\u5904\u7406\u5668
p3160
aV\u591a\u5a92\u4f53
p3161
aV\u591a\u5a92\u4f53\u6280\u672f
p3162
aV\u591a\u5b50
p3163
aV\u591a\u5bb6
p3164
aV\u591a\u5c11
p3165
aV\u591a\u5c42
p3166
aV\u591a\u5c42\u6b21
p3167
aV\u591a\u5e45
p3168
aV\u591a\u5e74
p3169
aV\u591a\u6240
p3170
aV\u591a\u6307
p3171
aV\u591a\u6307\u4ee4
p3172
aV\u591a\u6570
p3173
aV\u591a\u65b9\u9762
p3174
aV\u591a\u6761
p3175
aV\u591a\u6837
p3176
aV\u591a\u6837\u5316
p3177
aV\u591a\u6837\u6027
p3178
aV\u591a\u6a21
p3179
aV\u591a\u6b21
p3180
aV\u591a\u79cd
p3181
aV\u591a\u79cd\u8bed\u8a00
p3182
aV\u591a\u7bc7
p3183
aV\u591a\u7ea7
p3184
aV\u591a\u7ef4
p3185
aV\u591a\u89d2\u5ea6
p3186
aV\u591a\u8bed\u79cd
p3187
aV\u591a\u90e8
p3188
aV\u591a\u91cd
p3189
aV\u591a\u95e8
p3190
aV\u591a\u9762
p3191
aV\u591a\u9879
p3192
aV\u5927\u4e13
p3193
aV\u5927\u4e13\u9662\u6821
p3194
aV\u5927\u4e2d\u4e13
p3195
aV\u5927\u4f17\u4f20\u64ad
p3196
aV\u5927\u4f1a
p3197
aV\u5927\u540d\u9f0e\u9f0e
p3198
aV\u5927\u578b
p3199
aV\u5927\u578b\u9879\u76ee
p3200
aV\u5927\u591a
p3201
aV\u5927\u591a\u6570
p3202
aV\u5927\u5927
p3203
aV\u5927\u5927\u63d0\u9ad8
p3204
aV\u5927\u5927\u964d\u4f4e
p3205
aV\u5927\u5956
p3206
aV\u5927\u5b66
p3207
aV\u5927\u5b66\u6559\u6388
p3208
aV\u5927\u5b66\u672c\u79d1
p3209
aV\u5927\u5b66\u751f
p3210
aV\u5927\u5bb6
p3211
aV\u5927\u5bb9\u91cf
p3212
aV\u5927\u5c0f
p3213
aV\u5927\u5c4f\u5e55
p3214
aV\u5927\u5e08
p3215
aV\u5927\u6279\u91cf
p3216
aV\u5927\u6c14
p3217
aV\u5927\u6c14\u73af\u5883
p3218
aV\u5927\u6d0b\u5f7c\u5cb8
p3219
aV\u5927\u7ea6
p3220
aV\u5927\u7eb2
p3221
aV\u5927\u8111
p3222
aV\u5927\u81ea\u7136
p3223
aV\u5927\u89c4\u6a21
p3224
aV\u5927\u8bcd\u5178
p3225
aV\u5927\u90e8\u5206
p3226
aV\u5927\u90fd
p3227
aV\u5927\u91cf
p3228
aV\u5927\u9646
p3229
aV\u5927\u9769\u547d
p3230
aV\u5929\u4f7f
p3231
aV\u5929\u5730
p3232
aV\u5929\u5929
p3233
aV\u5929\u6587\u53f0
p3234
aV\u5929\u6587\u5b66\u5bb6
p3235
aV\u5929\u7ebf
p3236
aV\u5929\u987a
p3237
aV\u592a\u7a7a
p3238
aV\u592a\u9633
p3239
aV\u592a\u9633\u7cfb
p3240
aV\u592a\u9633\u80fd
p3241
aV\u592b\u4eba
p3242
aV\u592b\u7405
p3243
aV\u592f\u5b9e
p3244
aV\u5931\u4e4b\u5343\u91cc
p3245
aV\u5931\u6389
p3246
aV\u5931\u6548
p3247
aV\u5931\u771f
p3248
aV\u5931\u8303
p3249
aV\u5931\u8d25
p3250
aV\u5934\u75db
p3251
aV\u5934\u8111
p3252
aV\u5938\u5f20
p3253
aV\u593a\u53d6
p3254
aV\u5947\u5e7b
p3255
aV\u5947\u5f02
p3256
aV\u5947\u6570
p3257
aV\u5947\u70b9
p3258
aV\u5947\u8da3
p3259
aV\u5948\u5c14
p3260
aV\u5949\u732e
p3261
aV\u594b\u6597
p3262
aV\u5951\u7ea6
p3263
aV\u5954\u817e
p3264
aV\u5956\u52b1
p3265
aV\u5956\u5b66\u91d1
p3266
aV\u5956\u7ae0
p3267
aV\u5956\u91d1
p3268
aV\u5956\u9879
p3269
aV\u5957\u88c5
p3270
aV\u5960\u57fa\u4eba
p3271
aV\u5960\u5b9a
p3272
aV\u5965\u4f2f\u6797
p3273
aV\u5965\u5730\u5229
p3274
aV\u5965\u5730\u5229\u4eba
p3275
aV\u5965\u5c14\u798f\u5fb7
p3276
aV\u5965\u65af\u6c40
p3277
aV\u5965\u79d8
p3278
aV\u5967\u79d8
p3279
aV\u5973\u58eb
p3280
aV\u597d\u4e66
p3281
aV\u597d\u50cf
p3282
aV\u597d\u53cb
p3283
aV\u597d\u5730\u89e3\u51b3
p3284
aV\u597d\u5947
p3285
aV\u597d\u5947\u5fc3
p3286
aV\u597d\u8bc4
p3287
aV\u5982\u4e0b
p3288
aV\u5982\u4eca
p3289
aV\u5982\u4f55
p3290
aV\u5982\u679c
p3291
aV\u5982\u679c\u8bf4
p3292
aV\u5982\u6f6e
p3293
aV\u59bb\u5b50
p3294
aV\u59cb\u7ec8
p3295
aV\u59d0\u592b
p3296
aV\u59d4\u5458
p3297
aV\u59d4\u5458\u4f1a
p3298
aV\u59d7\u59d7\u6765\u8fdf
p3299
aV\u59dc\u5b88\u65ed
p3300
aV\u59dc\u8087\u56fd
p3301
aV\u59ff\u6001
p3302
aV\u59ff\u6001\u63a7\u5236
p3303
aV\u5a01\u80c1
p3304
aV\u5a31\u4e50
p3305
aV\u5a74\u5e7c\u513f
p3306
aV\u5a92\u4f53
p3307
aV\u5ac1\u63a5
p3308
aV\u5b50\u5c42
p3309
aV\u5b50\u6811
p3310
aV\u5b50\u6a21
p3311
aV\u5b50\u76ee\u6807
p3312
aV\u5b50\u7cfb\u7edf
p3313
aV\u5b55\u80b2
p3314
aV\u5b57\u5e93
p3315
aV\u5b57\u6bcd
p3316
aV\u5b57\u7b26\u8bc6\u522b
p3317
aV\u5b57\u7b26\u96c6
p3318
aV\u5b57\u8bcd
p3319
aV\u5b58\u50a8
p3320
aV\u5b58\u50a8\u4fdd\u62a4
p3321
aV\u5b58\u50a8\u5668
p3322
aV\u5b58\u50a8\u6280\u672f
p3323
aV\u5b58\u50a8\u7ba1\u7406
p3324
aV\u5b58\u50a8\u7cfb\u7edf
p3325
aV\u5b58\u50a8\u8bbe\u5907
p3326
aV\u5b58\u5728
p3327
aV\u5b58\u91cf
p3328
aV\u5b59\u4e5d\u971e
p3329
aV\u5b5f\u5b87\u9f99
p3330
aV\u5b63\u520a
p3331
aV\u5b64\u7acb
p3332
aV\u5b66\u4e60
p3333
aV\u5b66\u4e60\u5f8b
p3334
aV\u5b66\u4e60\u5fc3\u5f97
p3335
aV\u5b66\u4e60\u673a
p3336
aV\u5b66\u4ee5\u81f4\u7528
p3337
aV\u5b66\u4f1a
p3338
aV\u5b66\u4f4d
p3339
aV\u5b66\u5230
p3340
aV\u5b66\u53f2
p3341
aV\u5b66\u58eb
p3342
aV\u5b66\u58eb\u5b66\u4f4d
p3343
aV\u5b66\u62a5
p3344
aV\u5b66\u65f6
p3345
aV\u5b66\u671f
p3346
aV\u5b66\u672f
p3347
aV\u5b66\u672f\u4f1a\u8bae
p3348
aV\u5b66\u672f\u520a\u7269
p3349
aV\u5b66\u672f\u56e2\u4f53
p3350
aV\u5b66\u672f\u601d\u60f3
p3351
aV\u5b66\u672f\u671f\u520a
p3352
aV\u5b66\u672f\u6d3b\u52a8
p3353
aV\u5b66\u672f\u754c
p3354
aV\u5b66\u672f\u7814\u7a76
p3355
aV\u5b66\u672f\u8bba\u6587
p3356
aV\u5b66\u6821
p3357
aV\u5b66\u751f
p3358
aV\u5b66\u77f3
p3359
aV\u5b66\u79d1
p3360
aV\u5b66\u79d1\u4e13\u4e1a
p3361
aV\u5b66\u79d1\u524d\u6cbf
p3362
aV\u5b66\u79d1\u5efa\u8bbe
p3363
aV\u5b66\u8005
p3364
aV\u5b66\u8bf4
p3365
aV\u5b66\u95ee
p3366
aV\u5b66\u9662
p3367
aV\u5b69\u5b50
p3368
aV\u5b78\u50b3\u7d71
p3369
aV\u5b78\u7406\u8ad6
p3370
aV\u5b78\u8853\u754c
p3371
aV\u5b81\u6ce2\u4eba
p3372
aV\u5b83\u4eec
p3373
aV\u5b87\u534e
p3374
aV\u5b87\u5b99
p3375
aV\u5b87\u5b99\u89c2
p3376
aV\u5b89\u5168
p3377
aV\u5b89\u5168\u6027
p3378
aV\u5b89\u5168\u63aa\u65bd
p3379
aV\u5b89\u5168\u7b56\u7565
p3380
aV\u5b89\u5353
p3381
aV\u5b89\u5a1c
p3382
aV\u5b89\u6392
p3383
aV\u5b89\u73c0
p3384
aV\u5b89\u88c5
p3385
aV\u5b8b\u5065
p3386
aV\u5b8c\u5168
p3387
aV\u5b8c\u5584
p3388
aV\u5b8c\u5907
p3389
aV\u5b8c\u6210
p3390
aV\u5b8c\u6574
p3391
aV\u5b8c\u6574\u6027
p3392
aV\u5b8c\u6bd5
p3393
aV\u5b8c\u7f8e
p3394
aV\u5b8f\u6865
p3395
aV\u5b8f\u89c2
p3396
aV\u5b97\u6210\u5e86
p3397
aV\u5b97\u6559
p3398
aV\u5b97\u6559\u5b66
p3399
aV\u5b97\u65e8
p3400
aV\u5b9a\u4e49
p3401
aV\u5b9a\u4ef7
p3402
aV\u5b9a\u4f4d
p3403
aV\u5b9a\u5236
p3404
aV\u5b9a\u5411
p3405
aV\u5b9a\u5f8b
p3406
aV\u5b9a\u6027
p3407
aV\u5b9a\u6027\u5206\u6790
p3408
aV\u5b9a\u65f6\u5668
p3409
aV\u5b9a\u7406
p3410
aV\u5b9a\u7a3f
p3411
aV\u5b9a\u91cf
p3412
aV\u5b9a\u91cf\u5206\u6790
p3413
aV\u5b9d\u6797
p3414
aV\u5b9d\u8d35
p3415
aV\u5b9d\u8d35\u610f\u89c1
p3416
aV\u5b9d\u94a2
p3417
aV\u5b9e\u4e49
p3418
aV\u5b9e\u4e60
p3419
aV\u5b9e\u4e8b\u6c42\u662f
p3420
aV\u5b9e\u4f53
p3421
aV\u5b9e\u4f8b
p3422
aV\u5b9e\u4f8b\u6559\u7a0b
p3423
aV\u5b9e\u52a1
p3424
aV\u5b9e\u5728
p3425
aV\u5b9e\u5730
p3426
aV\u5b9e\u5b9e\u5728\u5728
p3427
aV\u5b9e\u6218
p3428
aV\u5b9e\u6218\u7bc7
p3429
aV\u5b9e\u6218\u7ecf\u9a8c
p3430
aV\u5b9e\u6570
p3431
aV\u5b9e\u65bd
p3432
aV\u5b9e\u65f6
p3433
aV\u5b9e\u6d4b
p3434
aV\u5b9e\u73b0
p3435
aV\u5b9e\u7528
p3436
aV\u5b9e\u7528\u4fe1\u606f
p3437
aV\u5b9e\u7528\u6027
p3438
aV\u5b9e\u7528\u6280\u5de7
p3439
aV\u5b9e\u7528\u6280\u672f
p3440
aV\u5b9e\u884c
p3441
aV\u5b9e\u8bc1
p3442
aV\u5b9e\u8d28
p3443
aV\u5b9e\u8d28\u6027
p3444
aV\u5b9e\u8df5
p3445
aV\u5b9e\u8df5\u6027
p3446
aV\u5b9e\u8df5\u7ecf\u9a8c
p3447
aV\u5b9e\u8df5\u8005
p3448
aV\u5b9e\u8df5\u8bc1\u660e
p3449
aV\u5b9e\u9645
p3450
aV\u5b9e\u9645\u4e0a
p3451
aV\u5b9e\u9645\u610f\u4e49
p3452
aV\u5b9e\u9645\u64cd\u4f5c
p3453
aV\u5b9e\u9645\u884c\u52a8
p3454
aV\u5b9e\u9a8c
p3455
aV\u5b9e\u9a8c\u5ba4
p3456
aV\u5b9e\u9a8c\u8005
p3457
aV\u5ba1\u56fe
p3458
aV\u5ba1\u5b9a
p3459
aV\u5ba1\u6838
p3460
aV\u5ba1\u89c6
p3461
aV\u5ba2\u4f53
p3462
aV\u5ba2\u5ea7
p3463
aV\u5ba2\u5ea7\u6559\u6388
p3464
aV\u5ba2\u6237
p3465
aV\u5ba2\u6237\u5173\u7cfb
p3466
aV\u5ba2\u6237\u670d\u52a1
p3467
aV\u5ba2\u6237\u7aef
p3468
aV\u5ba2\u6237\u8d44\u6599
p3469
aV\u5ba2\u89c2
p3470
aV\u5ba2\u89c2\u5b9e\u5728
p3471
aV\u5ba3\u4f20
p3472
aV\u5ba3\u5e03
p3473
aV\u5baa\u6cd5
p3474
aV\u5bb6\u4e2d
p3475
aV\u5bb6\u5ead\u6cbb\u7597
p3476
aV\u5bb6\u65cf
p3477
aV\u5bb6\u7528
p3478
aV\u5bb6\u7535\u4ea7\u54c1
p3479
aV\u5bb9\u5dee
p3480
aV\u5bb9\u5fcd
p3481
aV\u5bb9\u6613
p3482
aV\u5bb9\u6613\u63a5\u53d7
p3483
aV\u5bb9\u707e
p3484
aV\u5bb9\u91cf
p3485
aV\u5bb9\u9519
p3486
aV\u5bb9\u9519\u6027
p3487
aV\u5bbd\u5bb9
p3488
aV\u5bbe\u5915\u6cd5\u5c3c\u4e9a\u5927\u5b66
p3489
aV\u5bc4\u5b58\u5668
p3490
aV\u5bc4\u6765
p3491
aV\u5bc6\u5207
p3492
aV\u5bc6\u5207\u76f8\u5173
p3493
aV\u5bc6\u5ea6\u4f30\u8ba1
p3494
aV\u5bc6\u6b47\u6839
p3495
aV\u5bc6\u7801
p3496
aV\u5bc6\u7801\u5b66
p3497
aV\u5bc6\u7801\u672f
p3498
aV\u5bc6\u82cf\u91cc\u5dde
p3499
aV\u5bc6\u897f\u6839\u5dde
p3500
aV\u5bc6\u94a5
p3501
aV\u5bc6\u96c6
p3502
aV\u5bcc\u58eb\u901a
p3503
aV\u5bcc\u6709
p3504
aV\u5bcc\u6709\u6210\u679c
p3505
aV\u5be6\u6027
p3506
aV\u5bf9\u4e8e
p3507
aV\u5bf9\u51c6
p3508
aV\u5bf9\u5916
p3509
aV\u5bf9\u5916\u6c49\u8bed
p3510
aV\u5bf9\u5e94
p3511
aV\u5bf9\u624b
p3512
aV\u5bf9\u6297
p3513
aV\u5bf9\u6b64
p3514
aV\u5bf9\u6bd4
p3515
aV\u5bf9\u7167
p3516
aV\u5bf9\u7167\u8868
p3517
aV\u5bf9\u79f0
p3518
aV\u5bf9\u7b56
p3519
aV\u5bf9\u7cfb\u7edf
p3520
aV\u5bf9\u8bdd
p3521
aV\u5bf9\u8c61
p3522
aV\u5bf9\u9f50
p3523
aV\u5bfb\u4f18
p3524
aV\u5bfb\u5740
p3525
aV\u5bfb\u5f84
p3526
aV\u5bfb\u627e
p3527
aV\u5bfb\u6c42
p3528
aV\u5bfb\u8e2a
p3529
aV\u5bfc\u51fa
p3530
aV\u5bfc\u5411
p3531
aV\u5bfc\u5e08
p3532
aV\u5bfc\u5f15
p3533
aV\u5bfc\u5f39
p3534
aV\u5bfc\u5f39\u90e8\u961f
p3535
aV\u5bfc\u81f4
p3536
aV\u5bfc\u822a
p3537
aV\u5bfc\u822a\u7cfb\u7edf
p3538
aV\u5bfc\u8bba
p3539
aV\u5bfc\u8bfb
p3540
aV\u5bff\u547d
p3541
aV\u5c01\u95ed
p3542
aV\u5c01\u95ed\u7cfb\u7edf
p3543
aV\u5c01\u9762\u8bbe\u8ba1
p3544
aV\u5c04\u9891
p3545
aV\u5c06\u519b
p3546
aV\u5c06\u8981
p3547
aV\u5c0a\u4e25
p3548
aV\u5c0a\u656c
p3549
aV\u5c0f\u578b
p3550
aV\u5c0f\u5c0f\u7684
p3551
aV\u5c0f\u65f6
p3552
aV\u5c0f\u6ce2
p3553
aV\u5c0f\u732b
p3554
aV\u5c0f\u751f\u5883
p3555
aV\u5c0f\u7ec4
p3556
aV\u5c0f\u7ed3
p3557
aV\u5c0f\u7fa4
p3558
aV\u5c0f\u8282
p3559
aV\u5c0f\u89c4\u6a21
p3560
aV\u5c0f\u8f66
p3561
aV\u5c11\u513f
p3562
aV\u5c11\u6570\u51e0\u79cd
p3563
aV\u5c11\u6570\u6c11\u65cf
p3564
aV\u5c11\u91cf
p3565
aV\u5c16\u7aef
p3566
aV\u5c16\u7aef\u79d1\u6280
p3567
aV\u5c1a\u4f69\u6069
p3568
aV\u5c1a\u672a
p3569
aV\u5c1d\u8bd5
p3570
aV\u5c24\u4e3a\u91cd\u8981
p3571
aV\u5c24\u5176
p3572
aV\u5c31\u4e1a
p3573
aV\u5c31\u662f
p3574
aV\u5c31\u7528\u5230
p3575
aV\u5c31\u804c
p3576
aV\u5c31\u8bfb
p3577
aV\u5c31\u8bfb\u4e8e
p3578
aV\u5c3a\u5bf8
p3579
aV\u5c3a\u5ea6
p3580
aV\u5c3c\u4e9a
p3581
aV\u5c3c\u65af
p3582
aV\u5c3d\u53ef\u80fd
p3583
aV\u5c3d\u5feb
p3584
aV\u5c3d\u7ba1
p3585
aV\u5c3d\u8a00
p3586
aV\u5c3d\u91cf
p3587
aV\u5c3d\u91cf\u51cf\u5c11
p3588
aV\u5c40\u57df
p3589
aV\u5c40\u57df\u7f51
p3590
aV\u5c40\u90e8
p3591
aV\u5c40\u9650
p3592
aV\u5c40\u9650\u4e8e
p3593
aV\u5c40\u9650\u6027
p3594
aV\u5c40\u9762
p3595
aV\u5c42\u51fa\u4e0d\u7a77
p3596
aV\u5c42\u5c42
p3597
aV\u5c42\u6b21
p3598
aV\u5c42\u6b21\u5206\u660e
p3599
aV\u5c42\u6b21\u5316
p3600
aV\u5c42\u6b21\u6a21\u578b
p3601
aV\u5c42\u6b21\u7ed3\u6784
p3602
aV\u5c42\u7ea7
p3603
aV\u5c42\u9762
p3604
aV\u5c45\u4f4f
p3605
aV\u5c45\u6c11
p3606
aV\u5c48\u6298
p3607
aV\u5c4f\u5e55
p3608
aV\u5c4f\u5e55\u663e\u793a
p3609
aV\u5c4f\u853d
p3610
aV\u5c55\u5f00
p3611
aV\u5c55\u5f00\u8ba8\u8bba
p3612
aV\u5c55\u671b
p3613
aV\u5c55\u73b0
p3614
aV\u5c55\u73b0\u51fa
p3615
aV\u5c55\u793a
p3616
aV\u5c5e\u4e8e
p3617
aV\u5c5e\u6027
p3618
aV\u5c61\u6b21
p3619
aV\u5c71\u4e1c
p3620
aV\u5c71\u4e1c\u7701
p3621
aV\u5c71\u5730
p3622
aV\u5c71\u810a
p3623
aV\u5c81\u65f6
p3624
aV\u5c97\u4f4d
p3625
aV\u5cad\u5357
p3626
aV\u5cf0\u503c
p3627
aV\u5d2d\u65b0
p3628
aV\u5d4c\u5165
p3629
aV\u5d4c\u5165\u5f0f
p3630
aV\u5d4c\u5165\u5f0f\u64cd\u4f5c\u7cfb\u7edf
p3631
aV\u5d4c\u5165\u5f0f\u8f6f\u4ef6
p3632
aV\u5dc5\u5cf0
p3633
aV\u5dc5\u5cf0\u72b6\u6001
p3634
aV\u5dde\u7acb
p3635
aV\u5dde\u7acb\u5927\u5b66
p3636
aV\u5de1\u822a\u5bfc\u5f39
p3637
aV\u5de5\u4e1a
p3638
aV\u5de5\u4eba
p3639
aV\u5de5\u4f5c
p3640
aV\u5de5\u4f5c\u4eba\u5458
p3641
aV\u5de5\u4f5c\u5ba4
p3642
aV\u5de5\u4f5c\u6307\u5357
p3643
aV\u5de5\u4f5c\u6548\u7387
p3644
aV\u5de5\u4f5c\u7ad9
p3645
aV\u5de5\u4f5c\u7ec4
p3646
aV\u5de5\u4f5c\u8005
p3647
aV\u5de5\u5177
p3648
aV\u5de5\u5177\u4e66
p3649
aV\u5de5\u5177\u5305
p3650
aV\u5de5\u5177\u7bb1
p3651
aV\u5de5\u5382
p3652
aV\u5de5\u5546\u7ba1\u7406
p3653
aV\u5de5\u5b66
p3654
aV\u5de5\u79d1
p3655
aV\u5de5\u7a0b
p3656
aV\u5de5\u7a0b\u5316
p3657
aV\u5de5\u7a0b\u56fe
p3658
aV\u5de5\u7a0b\u5b66\u9662
p3659
aV\u5de5\u7a0b\u5e08
p3660
aV\u5de5\u7a0b\u5efa\u8bbe
p3661
aV\u5de5\u7a0b\u6280\u672f
p3662
aV\u5de5\u7a0b\u65bd\u5de5
p3663
aV\u5de5\u7a0b\u7855\u58eb
p3664
aV\u5de5\u7a0b\u7cfb
p3665
aV\u5de5\u7a0b\u8bbe\u8ba1
p3666
aV\u5de5\u7a0b\u9020\u4ef7
p3667
aV\u5de5\u7a0b\u91cf
p3668
aV\u5de5\u7a0b\u9662
p3669
aV\u5de5\u827a
p3670
aV\u5de5\u827a\u6027
p3671
aV\u5de7\u5999
p3672
aV\u5de8\u5320
p3673
aV\u5de8\u5927
p3674
aV\u5de8\u5927\u4f5c\u7528
p3675
aV\u5de8\u5927\u53d8\u5316
p3676
aV\u5de8\u64d8
p3677
aV\u5de8\u8457
p3678
aV\u5de9\u56fa
p3679
aV\u5dee\u4e4b\u6beb\u5398
p3680
aV\u5dee\u5206
p3681
aV\u5dee\u522b
p3682
aV\u5dee\u5f02
p3683
aV\u5dee\u5f02\u6027
p3684
aV\u5dee\u8ddd
p3685
aV\u5dee\u9519\u63a7\u5236
p3686
aV\u5df2\u6545
p3687
aV\u5df2\u6709
p3688
aV\u5df2\u7ecf
p3689
aV\u5df4\u4f2f
p3690
aV\u5df4\u65af
p3691
aV\u5df4\u723e\u7279
p3692
aV\u5df4\u7eb3
p3693
aV\u5e02\u573a
p3694
aV\u5e02\u573a\u4e3b\u4f53
p3695
aV\u5e02\u573a\u7ecf\u6d4e
p3696
aV\u5e02\u573a\u8425\u9500
p3697
aV\u5e02\u9762\u4e0a
p3698
aV\u5e03\u4ec0
p3699
aV\u5e03\u5c40
p3700
aV\u5e03\u6717
p3701
aV\u5e03\u6717\u8fd0\u52a8
p3702
aV\u5e03\u7ebf
p3703
aV\u5e03\u83b1\u7279
p3704
aV\u5e03\u91cc\u65af\u6258\u5c14
p3705
aV\u5e03\u9c81\u585e\u5c14
p3706
aV\u5e06\u8239
p3707
aV\u5e08\u751f
p3708
aV\u5e08\u8303\u5927\u5b66
p3709
aV\u5e0c\u4ec1
p3710
aV\u5e0c\u4f2f\u83b1
p3711
aV\u5e0c\u5c14\u4f2f\u7279
p3712
aV\u5e0c\u671b
p3713
aV\u5e0c\u814a
p3714
aV\u5e15\u68ee\u65af
p3715
aV\u5e15\u6d1b\u963f\u5c14\u6258
p3716
aV\u5e15\u7279\u91cc\u514b
p3717
aV\u5e16\u5b50
p3718
aV\u5e26\u5230
p3719
aV\u5e26\u6709
p3720
aV\u5e26\u6765
p3721
aV\u5e26\u9886
p3722
aV\u5e2e\u52a9
p3723
aV\u5e37\u5e55
p3724
aV\u5e38\u4eba
p3725
aV\u5e38\u52a1
p3726
aV\u5e38\u52a1\u7406\u4e8b
p3727
aV\u5e38\u5907
p3728
aV\u5e38\u5e38
p3729
aV\u5e38\u6570
p3730
aV\u5e38\u7528
p3731
aV\u5e38\u7528\u547d\u4ee4
p3732
aV\u5e38\u7528\u5de5\u5177
p3733
aV\u5e38\u89c1
p3734
aV\u5e38\u89c1\u95ee\u9898
p3735
aV\u5e38\u89c4
p3736
aV\u5e38\u8bc6
p3737
aV\u5e42\u5f8b
p3738
aV\u5e72\u6270
p3739
aV\u5e72\u90e8
p3740
aV\u5e72\u9884
p3741
aV\u5e73\u53f0
p3742
aV\u5e73\u53f0\u5f0f
p3743
aV\u5e73\u5747
p3744
aV\u5e73\u5dee
p3745
aV\u5e73\u677f
p3746
aV\u5e73\u6ed1
p3747
aV\u5e73\u7a33
p3748
aV\u5e73\u7b49
p3749
aV\u5e73\u884c
p3750
aV\u5e73\u8861
p3751
aV\u5e73\u88c5
p3752
aV\u5e73\u9762\u56fe
p3753
aV\u5e74\u4ee3
p3754
aV\u5e74\u521d
p3755
aV\u5e74\u5e95
p3756
aV\u5e74\u5ea6
p3757
aV\u5e74\u6765
p3758
aV\u5e74\u9f84\u6bb5
p3759
aV\u5e76\u4e0d\u9700\u8981
p3760
aV\u5e76\u4e14
p3761
aV\u5e76\u4e8e
p3762
aV\u5e76\u4ee5
p3763
aV\u5e76\u4f7f
p3764
aV\u5e76\u5217
p3765
aV\u5e76\u53d1
p3766
aV\u5e76\u5b58
p3767
aV\u5e76\u672a
p3768
aV\u5e76\u7528
p3769
aV\u5e76\u8054
p3770
aV\u5e76\u8302
p3771
aV\u5e76\u884c
p3772
aV\u5e76\u884c\u5904\u7406
p3773
aV\u5e76\u884c\u5904\u7406\u6280\u672f
p3774
aV\u5e76\u884c\u8ba1\u7b97
p3775
aV\u5e76\u8d2d
p3776
aV\u5e76\u91cd
p3777
aV\u5e7c\u513f\u56ed
p3778
aV\u5e7d\u9ed8\u611f
p3779
aV\u5e7f\u4e1c
p3780
aV\u5e7f\u4e1c\u7701
p3781
aV\u5e7f\u4e3a
p3782
aV\u5e7f\u4e49
p3783
aV\u5e7f\u57df
p3784
aV\u5e7f\u5927
p3785
aV\u5e7f\u5927\u8bfb\u8005
p3786
aV\u5e7f\u5dde\u5e02
p3787
aV\u5e7f\u5ea6
p3788
aV\u5e7f\u64ad
p3789
aV\u5e7f\u6cdb
p3790
aV\u5e7f\u6cdb\u5e94\u7528
p3791
aV\u5e7f\u9614
p3792
aV\u5e8f\u5217
p3793
aV\u5e8f\u5217\u5bc6\u7801
p3794
aV\u5e8f\u7bc7
p3795
aV\u5e8f\u8a00
p3796
aV\u5e93\u5b58
p3797
aV\u5e94\u4e3a
p3798
aV\u5e94\u4e88\u4ee5
p3799
aV\u5e94\u5bf9
p3800
aV\u5e94\u5f53
p3801
aV\u5e94\u6025
p3802
aV\u5e94\u6709
p3803
aV\u5e94\u72af
p3804
aV\u5e94\u7528
p3805
aV\u5e94\u7528\u529b\u5b66
p3806
aV\u5e94\u7528\u578b
p3807
aV\u5e94\u7528\u5c42
p3808
aV\u5e94\u7528\u6027
p3809
aV\u5e94\u7528\u670d\u52a1\u5668
p3810
aV\u5e94\u7528\u72b6\u51b5
p3811
aV\u5e94\u7528\u79d1\u5b66
p3812
aV\u5e94\u7528\u7a0b\u5e8f
p3813
aV\u5e94\u7528\u8f6f\u4ef6
p3814
aV\u5e94\u7528\u9886\u57df
p3815
aV\u5e94\u8bd5
p3816
aV\u5e94\u8bd5\u8005
p3817
aV\u5e94\u8be5
p3818
aV\u5e94\u8fd0\u800c\u751f
p3819
aV\u5e95\u5411\u4e0a
p3820
aV\u5e95\u5c42
p3821
aV\u5e9e\u52a0\u83b1
p3822
aV\u5e9e\u5927
p3823
aV\u5e9f\u70ed
p3824
aV\u5ea6\u91cf
p3825
aV\u5ea7\u8c08
p3826
aV\u5eb7\u5948\u5c14\u5927\u5b66
p3827
aV\u5eb7\u65af\u5766\u8328
p3828
aV\u5ef6\u4f38
p3829
aV\u5ef6\u7eed
p3830
aV\u5ef6\u8bf7
p3831
aV\u5ef6\u8fdf
p3832
aV\u5ef6\u957f
p3833
aV\u5efa\u6a21
p3834
aV\u5efa\u7acb
p3835
aV\u5efa\u7b51
p3836
aV\u5efa\u7b51\u5b66
p3837
aV\u5efa\u7b51\u5e08
p3838
aV\u5efa\u7b51\u7269
p3839
aV\u5efa\u8bae
p3840
aV\u5efa\u8bbe
p3841
aV\u5efa\u8bbe\u5de5\u7a0b
p3842
aV\u5efa\u8bbe\u90e8
p3843
aV\u5efa\u8bbe\u9879\u76ee
p3844
aV\u5efa\u9020
p3845
aV\u5efa\u9020\u5e08
p3846
aV\u5f00\u5173
p3847
aV\u5f00\u5173\u7f51\u7edc
p3848
aV\u5f00\u521b
p3849
aV\u5f00\u521b\u6027
p3850
aV\u5f00\u53d1
p3851
aV\u5f00\u53d1\u4eba\u5458
p3852
aV\u5f00\u53d1\u5468\u671f
p3853
aV\u5f00\u53d1\u5de5\u5177
p3854
aV\u5f00\u53d1\u6280\u672f
p3855
aV\u5f00\u53d1\u65b0
p3856
aV\u5f00\u53d1\u65b9\u6cd5
p3857
aV\u5f00\u53d1\u8005
p3858
aV\u5f00\u53d1\u90e8
p3859
aV\u5f00\u5934
p3860
aV\u5f00\u59cb
p3861
aV\u5f00\u5c01\u5e02
p3862
aV\u5f00\u5c55
p3863
aV\u5f00\u62d3
p3864
aV\u5f00\u653e
p3865
aV\u5f00\u653e\u5f0f
p3866
aV\u5f00\u653e\u7cfb\u7edf
p3867
aV\u5f00\u6765
p3868
aV\u5f00\u6e90
p3869
aV\u5f00\u76d8
p3870
aV\u5f00\u76ee
p3871
aV\u5f00\u8bbe
p3872
aV\u5f00\u91c7
p3873
aV\u5f02\u540c
p3874
aV\u5f02\u56e0
p3875
aV\u5f02\u5e38
p3876
aV\u5f02\u6027
p3877
aV\u5f02\u6784
p3878
aV\u5f02\u901f
p3879
aV\u5f15\u4eba\u6df1\u601d
p3880
aV\u5f15\u4ecb
p3881
aV\u5f15\u5165
p3882
aV\u5f15\u53d1
p3883
aV\u5f15\u5bfc
p3884
aV\u5f15\u64ce
p3885
aV\u5f15\u6587
p3886
aV\u5f15\u7406
p3887
aV\u5f15\u7528
p3888
aV\u5f15\u811a
p3889
aV\u5f15\u8a00
p3890
aV\u5f15\u8bba
p3891
aV\u5f15\u8d77
p3892
aV\u5f15\u8fdb
p3893
aV\u5f15\u9886
p3894
aV\u5f17\u91cc\u5fb7\u91cc\u5e0c
p3895
aV\u5f1b\u8c6b
p3896
aV\u5f20\u534e\u8bd1
p3897
aV\u5f20\u653f
p3898
aV\u5f20\u6b65\u6db5
p3899
aV\u5f20\u73b2\u971e
p3900
aV\u5f20\u743c
p3901
aV\u5f20\u9526\u745e
p3902
aV\u5f20\u957f\u7433
p3903
aV\u5f31\u7535
p3904
aV\u5f39\u4f53
p3905
aV\u5f39\u9053
p3906
aV\u5f39\u9053\u5bfc\u5f39
p3907
aV\u5f3a\u5316
p3908
aV\u5f3a\u5316\u8bad\u7ec3
p3909
aV\u5f3a\u5927
p3910
aV\u5f3a\u5ea6
p3911
aV\u5f3a\u70c8
p3912
aV\u5f3a\u8c03
p3913
aV\u5f52\u7c7b
p3914
aV\u5f52\u7eb3
p3915
aV\u5f53\u4eca
p3916
aV\u5f53\u4eca\u793e\u4f1a
p3917
aV\u5f53\u4ee3
p3918
aV\u5f53\u4ee4
p3919
aV\u5f53\u4f5c
p3920
aV\u5f53\u524d
p3921
aV\u5f53\u5730
p3922
aV\u5f53\u65f6
p3923
aV\u5f53\u7136
p3924
aV\u5f53\u9009
p3925
aV\u5f55\u5165
p3926
aV\u5f62\u53d8
p3927
aV\u5f62\u5f0f
p3928
aV\u5f62\u5f0f\u4e3b\u4e49
p3929
aV\u5f62\u5f0f\u5316
p3930
aV\u5f62\u5f0f\u8bed\u8a00
p3931
aV\u5f62\u5f62\u8272\u8272
p3932
aV\u5f62\u6001
p3933
aV\u5f62\u6001\u5b66
p3934
aV\u5f62\u6210
p3935
aV\u5f62\u72b6
p3936
aV\u5f62\u8c61
p3937
aV\u5f69\u5370\u5382
p3938
aV\u5f69\u8272\u56fe\u50cf
p3939
aV\u5f69\u8679
p3940
aV\u5f6d\u667a\u52c7
p3941
aV\u5f6d\u715c
p3942
aV\u5f6d\u99a8\u840d
p3943
aV\u5f6d\u9f50\u4e9a
p3944
aV\u5f71\u50cf
p3945
aV\u5f71\u5370\u7248
p3946
aV\u5f71\u54cd
p3947
aV\u5f71\u54cd\u529b
p3948
aV\u5f71\u7247
p3949
aV\u5f71\u89c6
p3950
aV\u5f71\u9662
p3951
aV\u5f7b\u5e95
p3952
aV\u5f7c\u6b64
p3953
aV\u5f80\u5f80
p3954
aV\u5f80\u65e5
p3955
aV\u5f81\u7a0b
p3956
aV\u5f84\u5411
p3957
aV\u5f88\u591a
p3958
aV\u5f88\u5927
p3959
aV\u5f88\u597d
p3960
aV\u5f88\u5f3a
p3961
aV\u5f88\u5feb
p3962
aV\u5f88\u9ad8
p3963
aV\u5f92\u52b3
p3964
aV\u5f92\u52b3\u65e0\u529f
p3965
aV\u5f97\u4e3b
p3966
aV\u5f97\u4ee5
p3967
aV\u5f97\u514b\u8428\u65af\u5927\u5b66
p3968
aV\u5f97\u51fa
p3969
aV\u5f97\u5230
p3970
aV\u5f97\u610f\u95e8\u751f
p3971
aV\u5faa\u5e8f\u6e10\u8fdb
p3972
aV\u5faa\u73af
p3973
aV\u5faa\u73af\u8bba
p3974
aV\u5fae\u4e0d\u8db3\u9053
p3975
aV\u5fae\u5206
p3976
aV\u5fae\u5206\u65b9\u7a0b
p3977
aV\u5fae\u578b
p3978
aV\u5fae\u5904\u7406\u5668
p3979
aV\u5fae\u673a
p3980
aV\u5fae\u7535\u5b50
p3981
aV\u5fae\u79ef\u5206
p3982
aV\u5fae\u88c2
p3983
aV\u5fae\u89c2
p3984
aV\u5fae\u8f6f
p3985
aV\u5fae\u8f6f\u516c\u53f8
p3986
aV\u5fb7\u56fd
p3987
aV\u5fb7\u6587
p3988
aV\u5fb7\u6587\u7248
p3989
aV\u5fc3\u5f97
p3990
aV\u5fc3\u60c5
p3991
aV\u5fc3\u7406
p3992
aV\u5fc3\u7406\u5065\u5eb7
p3993
aV\u5fc3\u7406\u54a8\u8be2
p3994
aV\u5fc3\u7406\u5b66
p3995
aV\u5fc3\u7406\u5b66\u5bb6
p3996
aV\u5fc3\u7406\u6cbb\u7597
p3997
aV\u5fc3\u7406\u8fc7\u7a0b
p3998
aV\u5fc3\u810f
p3999
aV\u5fc3\u8def\u5386\u7a0b
p4000
aV\u5fc5\u4e0d\u53ef\u5c11
p4001
aV\u5fc5\u4fee
p4002
aV\u5fc5\u4fee\u8bfe\u7a0b
p4003
aV\u5fc5\u5907
p4004
aV\u5fc5\u7136
p4005
aV\u5fc5\u8003
p4006
aV\u5fc5\u8981
p4007
aV\u5fc5\u8981\u6027
p4008
aV\u5fc5\u8981\u6761\u4ef6
p4009
aV\u5fc5\u8bfb
p4010
aV\u5fc5\u8bfb\u4e66
p4011
aV\u5fc5\u9700
p4012
aV\u5fc5\u987b
p4013
aV\u5fd7\u5f3a
p4014
aV\u5fd7\u613f
p4015
aV\u5fd9\u788c\u4e0d\u582a
p4016
aV\u5fe0\u5b9e\u6027
p4017
aV\u5fe0\u8bda
p4018
aV\u5feb\u4e50
p4019
aV\u5feb\u7167
p4020
aV\u5feb\u901f
p4021
aV\u5ffd\u7565
p4022
aV\u6000\u7279\u6d77
p4023
aV\u6000\u7591
p4024
aV\u6001\u5ea6
p4025
aV\u600e\u4e48
p4026
aV\u600e\u6837
p4027
aV\u601d\u60f3
p4028
aV\u601d\u60f3\u53f2
p4029
aV\u601d\u60f3\u5bb6
p4030
aV\u601d\u6f6e
p4031
aV\u601d\u7ef4
p4032
aV\u601d\u7ef4\u79d1\u5b66
p4033
aV\u601d\u8003
p4034
aV\u601d\u8003\u9898
p4035
aV\u601d\u8def
p4036
aV\u601d\u8def\u6e05\u6670
p4037
aV\u601d\u8fa8
p4038
aV\u6025\u9700
p4039
aV\u6026\u7136\u5fc3\u52a8
p4040
aV\u6027\u4ef7\u6bd4
p4041
aV\u6027\u5f71
p4042
aV\u6027\u80fd
p4043
aV\u6027\u8d28
p4044
aV\u603b\u4e4b
p4045
aV\u603b\u4f53
p4046
aV\u603b\u53c2
p4047
aV\u603b\u548c
p4048
aV\u603b\u662f
p4049
aV\u603b\u76d1
p4050
aV\u603b\u7ebf
p4051
aV\u603b\u7ecf\u7406
p4052
aV\u603b\u7ed3
p4053
aV\u603b\u7f72
p4054
aV\u603b\u88c1\u517c
p4055
aV\u603b\u8bba
p4056
aV\u6050\u9f99
p4057
aV\u6052\u5b9a
p4058
aV\u6052\u6d41\u6e90
p4059
aV\u6062\u590d
p4060
aV\u6062\u5f18
p4061
aV\u6063\u8086
p4062
aV\u6070\u5982
p4063
aV\u6076\u5316
p4064
aV\u6076\u610f
p4065
aV\u607a\u6492
p4066
aV\u60a3\u8005
p4067
aV\u60c5\u51b5
p4068
aV\u60c5\u62a5
p4069
aV\u60c5\u62a5\u5206\u6790
p4070
aV\u60c5\u62a5\u5b66
p4071
aV\u60c5\u7bc0
p4072
aV\u60ca\u4e16
p4073
aV\u60ca\u4eba
p4074
aV\u60df\u4e00
p4075
aV\u60e0\u666e
p4076
aV\u60ef\u5bfc
p4077
aV\u60ef\u6027
p4078
aV\u60ef\u6027\u5bfc\u822a
p4079
aV\u60ef\u7528\u8bed
p4080
aV\u60f3\u6cd5
p4081
aV\u60f3\u8981
p4082
aV\u60f3\u8c61
p4083
aV\u60f3\u8c61\u6027
p4084
aV\u6109\u5feb
p4085
aV\u610f\u4e49
p4086
aV\u610f\u5408
p4087
aV\u610f\u5916
p4088
aV\u610f\u5927\u5229
p4089
aV\u610f\u601d
p4090
aV\u610f\u6599
p4091
aV\u610f\u89c1
p4092
aV\u610f\u8b58
p4093
aV\u610f\u8bc6
p4094
aV\u611f\u5174\u8da3
p4095
aV\u611f\u6069\u8282
p4096
aV\u611f\u609f
p4097
aV\u611f\u6fc0
p4098
aV\u611f\u77e5
p4099
aV\u611f\u77e5\u5668
p4100
aV\u611f\u8c22
p4101
aV\u6167\u51b0
p4102
aV\u6168\u7387
p4103
aV\u6208\u91d1
p4104
aV\u6210\u4e3a
p4105
aV\u6210\u4eba
p4106
aV\u6210\u50cf
p4107
aV\u6210\u5206
p4108
aV\u6210\u529f
p4109
aV\u6210\u540d
p4110
aV\u6210\u540d\u4f5c
p4111
aV\u6210\u5458
p4112
aV\u6210\u578b
p4113
aV\u6210\u5c31
p4114
aV\u6210\u5c31\u5956
p4115
aV\u6210\u5e74\u4eba
p4116
aV\u6210\u6709
p4117
aV\u6210\u672c
p4118
aV\u6210\u679c
p4119
aV\u6210\u679c\u5956
p4120
aV\u6210\u719f
p4121
aV\u6210\u7acb
p4122
aV\u6210\u7bc7
p4123
aV\u6210\u8bba
p4124
aV\u6210\u8d25
p4125
aV\u6211\u4eec
p4126
aV\u6211\u5011
p4127
aV\u6211\u56fd
p4128
aV\u6216\u662f
p4129
aV\u6216\u8005
p4130
aV\u6216\u975e
p4131
aV\u6218\u4e89
p4132
aV\u6218\u4e89\u573a\u9762
p4133
aV\u6218\u573a
p4134
aV\u6218\u672f
p4135
aV\u6218\u672f\u5bfc\u5f39
p4136
aV\u6218\u7565
p4137
aV\u622a\u83b7
p4138
aV\u6234\u4f0a
p4139
aV\u6234\u660e\u946b
p4140
aV\u6237\u5916\u6d3b\u52a8
p4141
aV\u6237\u5916\u8fd0\u52a8
p4142
aV\u6240\u4e0d
p4143
aV\u6240\u4ee5
p4144
aV\u6240\u4f5c
p4145
aV\u6240\u52a0
p4146
aV\u6240\u5728
p4147
aV\u6240\u5b66
p4148
aV\u6240\u5c5e
p4149
aV\u6240\u6307
p4150
aV\u6240\u6709
p4151
aV\u6240\u7528
p4152
aV\u6240\u793a
p4153
aV\u6240\u8457
p4154
aV\u6240\u8bf4
p4155
aV\u6240\u8c13
p4156
aV\u6240\u8ff0
p4157
aV\u6240\u957f
p4158
aV\u6240\u9644
p4159
aV\u6240\u9700
p4160
aV\u6247\u533a
p4161
aV\u624b\u518c
p4162
aV\u624b\u5199
p4163
aV\u624b\u5199\u4f53
p4164
aV\u624b\u5199\u8f93\u5165
p4165
aV\u624b\u52a8
p4166
aV\u624b\u5de5
p4167
aV\u624b\u628a\u624b
p4168
aV\u624b\u6307
p4169
aV\u624b\u672f
p4170
aV\u624b\u673a
p4171
aV\u624b\u6bb5
p4172
aV\u624b\u6cd5
p4173
aV\u624b\u7a3f
p4174
aV\u624d\u80fd
p4175
aV\u6253\u4e0b
p4176
aV\u6253\u4e0b\u57fa\u7840
p4177
aV\u6253\u4e71
p4178
aV\u6253\u5370
p4179
aV\u6253\u5370\u673a
p4180
aV\u6253\u5b57
p4181
aV\u6253\u5f00
p4182
aV\u6253\u6298
p4183
aV\u6253\u7834
p4184
aV\u6253\u7b97
p4185
aV\u6253\u9020
p4186
aV\u6258\u5c14\u91d1
p4187
aV\u6258\u9a6c\u65af
p4188
aV\u625b\u9f0e\u4e4b\u4f5c
p4189
aV\u6267\u4e1a
p4190
aV\u6267\u4e1a\u8d44\u683c
p4191
aV\u6267\u653f
p4192
aV\u6267\u653f\u4e3a\u6c11
p4193
aV\u6267\u7740
p4194
aV\u6267\u884c
p4195
aV\u6267\u884c\u5668
p4196
aV\u6269\u5145
p4197
aV\u6269\u5927
p4198
aV\u6269\u5c55
p4199
aV\u6269\u6563
p4200
aV\u6269\u9891
p4201
aV\u6269\u9891\u901a\u4fe1
p4202
aV\u626b\u63cf
p4203
aV\u626b\u63cf\u4eea
p4204
aV\u6270\u52a8
p4205
aV\u6279\u5224
p4206
aV\u6279\u5224\u6027
p4207
aV\u6279\u5904\u7406
p4208
aV\u6279\u8a55
p4209
aV\u6279\u8bc4
p4210
aV\u6279\u8bc4\u6307\u6b63
p4211
aV\u6279\u91cf
p4212
aV\u627e\u5230
p4213
aV\u627f\u62c5
p4214
aV\u627f\u8ba4
p4215
aV\u627f\u8bfa
p4216
aV\u6280\u5de7
p4217
aV\u6280\u5e08
p4218
aV\u6280\u672f
p4219
aV\u6280\u672f\u4eba\u5458
p4220
aV\u6280\u672f\u57f9\u8bad
p4221
aV\u6280\u672f\u5f00\u53d1
p4222
aV\u6280\u672f\u6027
p4223
aV\u6280\u672f\u624b\u6bb5
p4224
aV\u6280\u672f\u652f\u6301
p4225
aV\u6280\u672f\u76f8\u7ed3\u5408
p4226
aV\u6280\u672f\u7ec6\u8282
p4227
aV\u6280\u672f\u8d44\u683c
p4228
aV\u6280\u7f16
p4229
aV\u6280\u80fd
p4230
aV\u628a\u63e1
p4231
aV\u6293\u4f4f
p4232
aV\u6295\u5165
p4233
aV\u6295\u5f71
p4234
aV\u6295\u653e
p4235
aV\u6295\u6807\u6cd5
p4236
aV\u6295\u8d44
p4237
aV\u6295\u8d44\u51b3\u7b56
p4238
aV\u6295\u8d44\u8005
p4239
aV\u6297\u5e72\u6270
p4240
aV\u629b\u7269\u7ebf
p4241
aV\u62a2\u6551
p4242
aV\u62a5\u544a
p4243
aV\u62a5\u544a\u6587\u5b66
p4244
aV\u62a5\u9053
p4245
aV\u62b5\u6d88
p4246
aV\u62bc\u9898
p4247
aV\u62bd\u53d6
p4248
aV\u62bd\u8c61
p4249
aV\u62bd\u8c61\u601d\u7ef4
p4250
aV\u62bd\u8c61\u6570\u636e\u7c7b\u578b
p4251
aV\u62bd\u8c61\u6982\u5ff5
p4252
aV\u62c5\u4efb
p4253
aV\u62c5\u4fdd
p4254
aV\u62c9\u4e01\u6587
p4255
aV\u62c9\u4e01\u8bed
p4256
aV\u62c9\u4e18\u5179
p4257
aV\u62c9\u514b\u65af
p4258
aV\u62c9\u5179\u6d1b
p4259
aV\u62c9\u52a8
p4260
aV\u62c9\u5fb7\u798f
p4261
aV\u62c9\u624e
p4262
aV\u62c9\u683c\u6717
p4263
aV\u62c9\u739b
p4264
aV\u62cd\u5356
p4265
aV\u62cd\u6444
p4266
aV\u62cd\u6848\u53eb\u7edd
p4267
aV\u62d3\u5bbd
p4268
aV\u62d3\u5c55
p4269
aV\u62d3\u6251
p4270
aV\u62d3\u6251\u5b66
p4271
aV\u62db\u6807
p4272
aV\u62df\u5408
p4273
aV\u62e5\u6709
p4274
aV\u62e6\u622a
p4275
aV\u62fc\u5199
p4276
aV\u62fc\u5199\u9519\u8bef
p4277
aV\u62ff\u5230
p4278
aV\u6301\u7eed
p4279
aV\u6301\u7eed\u6027
p4280
aV\u6307\u4ee4
p4281
aV\u6307\u4ee4\u7cfb\u7edf
p4282
aV\u6307\u4ee4\u96c6
p4283
aV\u6307\u51fa
p4284
aV\u6307\u5357
p4285
aV\u6307\u5bfc
p4286
aV\u6307\u5bfc\u4e66
p4287
aV\u6307\u5bfc\u4f5c\u7528
p4288
aV\u6307\u5bfc\u601d\u60f3
p4289
aV\u6307\u6218\u5458
p4290
aV\u6307\u6325
p4291
aV\u6307\u6559
p4292
aV\u6307\u6570
p4293
aV\u6307\u660e
p4294
aV\u6307\u6807
p4295
aV\u6307\u6807\u4f53\u7cfb
p4296
aV\u6307\u6b63
p4297
aV\u6307\u7eb9
p4298
aV\u6307\u7eb9\u56fe
p4299
aV\u6307\u7eb9\u5b66
p4300
aV\u6307\u7eb9\u8bc6\u522b
p4301
aV\u6309\u56fe\u7d22\u9aa5
p4302
aV\u6309\u7167
p4303
aV\u6309\u94ae
p4304
aV\u6311\u6218
p4305
aV\u6311\u6218\u6027
p4306
aV\u6311\u9009
p4307
aV\u6316\u6398
p4308
aV\u632a\u5a01
p4309
aV\u632f\u52a8
p4310
aV\u632f\u8361
p4311
aV\u632f\u8361\u7535\u8def
p4312
aV\u6355\u83b7
p4313
aV\u635f\u4f24
p4314
aV\u635f\u574f
p4315
aV\u635f\u5bb3
p4316
aV\u635f\u8017
p4317
aV\u6362\u55bb
p4318
aV\u6362\u6210
p4319
aV\u6362\u70ed\u5668
p4320
aV\u6377\u514b
p4321
aV\u6377\u8054
p4322
aV\u6388\u4e88
p4323
aV\u6388\u4eba\u4ee5\u6e14
p4324
aV\u6388\u8bfe
p4325
aV\u638c\u4e0a
p4326
aV\u638c\u63a7
p4327
aV\u638c\u63e1
p4328
aV\u638c\u7ba1
p4329
aV\u6392\u5217
p4330
aV\u6392\u5e8f
p4331
aV\u6392\u6b67
p4332
aV\u6392\u7ebf
p4333
aV\u6392\u961f
p4334
aV\u6392\u961f\u6a21\u578b
p4335
aV\u63a2\u5bfb
p4336
aV\u63a2\u6c42
p4337
aV\u63a2\u6d4b
p4338
aV\u63a2\u79d8
p4339
aV\u63a2\u7a76
p4340
aV\u63a2\u7d22
p4341
aV\u63a2\u7d22\u6027
p4342
aV\u63a2\u7d22\u8005
p4343
aV\u63a2\u8ba8
p4344
aV\u63a5\u4e0b\u6765
p4345
aV\u63a5\u53d7
p4346
aV\u63a5\u53e3
p4347
aV\u63a5\u53e3\u6280\u672f
p4348
aV\u63a5\u5b57
p4349
aV\u63a5\u6536
p4350
aV\u63a5\u7740
p4351
aV\u63a5\u7ebf
p4352
aV\u63a5\u8fd1
p4353
aV\u63a7\u5236
p4354
aV\u63a7\u5236\u5143\u4ef6
p4355
aV\u63a7\u5236\u5668
p4356
aV\u63a7\u5236\u5de5\u7a0b
p4357
aV\u63a7\u5236\u6280\u672f
p4358
aV\u63a7\u5236\u6d41
p4359
aV\u63a7\u5236\u7b56\u7565
p4360
aV\u63a7\u5236\u7b97\u6cd5
p4361
aV\u63a7\u5236\u7cfb\u7edf
p4362
aV\u63a7\u5236\u8bba
p4363
aV\u63a7\u5236\u8f6f\u4ef6
p4364
aV\u63a7\u7cfb\u7edf
p4365
aV\u63a7\u8ba8
p4366
aV\u63a8\u4ecb
p4367
aV\u63a8\u51fa
p4368
aV\u63a8\u52a8
p4369
aV\u63a8\u5bfc
p4370
aV\u63a8\u5e7f
p4371
aV\u63a8\u5e7f\u5e94\u7528
p4372
aV\u63a8\u65ad
p4373
aV\u63a8\u7406
p4374
aV\u63a8\u7406\u65b9\u6cd5
p4375
aV\u63a8\u77e5
p4376
aV\u63a8\u8350
p4377
aV\u63a8\u8bba
p4378
aV\u63a8\u8fdb
p4379
aV\u63aa\u65bd
p4380
aV\u63cf\u7ed8
p4381
aV\u63cf\u8ff0
p4382
aV\u63cf\u8ff0\u8bed\u8a00
p4383
aV\u63d0\u4f9b
p4384
aV\u63d0\u4f9b\u5546
p4385
aV\u63d0\u51fa
p4386
aV\u63d0\u5230
p4387
aV\u63d0\u524d
p4388
aV\u63d0\u524d\u91cf
p4389
aV\u63d0\u5347
p4390
aV\u63d0\u53ca
p4391
aV\u63d0\u53d6
p4392
aV\u63d0\u540d
p4393
aV\u63d0\u540d\u5956
p4394
aV\u63d0\u70bc
p4395
aV\u63d0\u793a
p4396
aV\u63d0\u7eb2
p4397
aV\u63d0\u9ad8
p4398
aV\u63d2\u4ef6
p4399
aV\u63d2\u503c\u6cd5
p4400
aV\u63d2\u5165
p4401
aV\u63d2\u56fe
p4402
aV\u63d2\u66f2
p4403
aV\u63ed\u5f00
p4404
aV\u63ed\u793a
p4405
aV\u641c\u7d22
p4406
aV\u641c\u7d22\u5f15\u64ce
p4407
aV\u641c\u7d22\u7b97\u6cd5
p4408
aV\u642d\u5efa
p4409
aV\u642d\u8d77
p4410
aV\u643a\u9886
p4411
aV\u6444\u50cf\u5934
p4412
aV\u6444\u52a8
p4413
aV\u6444\u5f71
p4414
aV\u6446\u5f0f
p4415
aV\u6446\u8131
p4416
aV\u6458\u53d6
p4417
aV\u6458\u6284
p4418
aV\u6458\u81ea
p4419
aV\u6469\u6258\u7f57\u62c9
p4420
aV\u6478\u7d22
p4421
aV\u64b0\u5199
p4422
aV\u64b0\u6587
p4423
aV\u64b0\u7a3f\u4eba
p4424
aV\u64c5\u957f
p4425
aV\u64cd\u4f5c
p4426
aV\u64cd\u4f5c\u624b
p4427
aV\u64cd\u4f5c\u6b65\u9aa4
p4428
aV\u64cd\u4f5c\u7cfb\u7edf
p4429
aV\u64cd\u4f5c\u8005
p4430
aV\u64cd\u4f5c\u8fc7\u7a0b
p4431
aV\u64cd\u58f0
p4432
aV\u64cd\u7eb5
p4433
aV\u652f\u6301
p4434
aV\u652f\u6301\u7cfb\u7edf
p4435
aV\u652f\u63f4
p4436
aV\u652f\u6491
p4437
aV\u652f\u6491\u4f53\u7cfb
p4438
aV\u652f\u914d
p4439
aV\u6536\u5165
p4440
aV\u6536\u5230
p4441
aV\u6536\u53d1
p4442
aV\u6536\u5f55
p4443
aV\u6536\u655b\u6027
p4444
aV\u6536\u76ca
p4445
aV\u6536\u7f29\u7387
p4446
aV\u6536\u83b7
p4447
aV\u6536\u8bcd
p4448
aV\u6536\u96c6
p4449
aV\u6536\u96c6\u6574\u7406
p4450
aV\u6539\u5199
p4451
aV\u6539\u53d8
p4452
aV\u6539\u5584
p4453
aV\u6539\u5efa
p4454
aV\u6539\u7531
p4455
aV\u6539\u7de8
p4456
aV\u6539\u8fdb
p4457
aV\u6539\u9769
p4458
aV\u6539\u9769\u5f00\u653e
p4459
aV\u653b\u5173
p4460
aV\u653b\u5173\u9879\u76ee
p4461
aV\u653b\u51fb
p4462
aV\u653b\u7565
p4463
aV\u653b\u8bfb
p4464
aV\u653e\u5165
p4465
aV\u653e\u5230
p4466
aV\u653e\u5728
p4467
aV\u653e\u5927\u5668
p4468
aV\u653e\u5f03
p4469
aV\u653f\u534f
p4470
aV\u653f\u5e9c
p4471
aV\u653f\u6cbb\u5bb6
p4472
aV\u653f\u6cbb\u7ecf\u6d4e\u5b66
p4473
aV\u653f\u7b56
p4474
aV\u6545\u4e8b
p4475
aV\u6545\u969c
p4476
aV\u6545\u969c\u8bca\u65ad
p4477
aV\u6548\u5e94
p4478
aV\u6548\u679c
p4479
aV\u6548\u679c\u56fe
p4480
aV\u6548\u7387
p4481
aV\u6548\u7528
p4482
aV\u654f\u611f\u6027
p4483
aV\u654f\u6377
p4484
aV\u654f\u9510
p4485
aV\u6551\u8d4e
p4486
aV\u6558\u4e8b
p4487
aV\u6558\u4e8b\u5b78
p4488
aV\u6559\u4e66\u80b2\u4eba
p4489
aV\u6559\u5458
p4490
aV\u6559\u5b66
p4491
aV\u6559\u5b66\u5185\u5bb9
p4492
aV\u6559\u5b66\u5927\u7eb2
p4493
aV\u6559\u5b66\u6539\u9769
p4494
aV\u6559\u5b66\u7814\u7a76
p4495
aV\u6559\u5b66\u79d1\u7814
p4496
aV\u6559\u5b66\u8981\u6c42
p4497
aV\u6559\u5b66\u8f6f\u4ef6
p4498
aV\u6559\u5b66\u8f85\u5bfc
p4499
aV\u6559\u5e08
p4500
aV\u6559\u6388
p4501
aV\u6559\u6388\u7ea7
p4502
aV\u6559\u6750
p4503
aV\u6559\u6750\u5185\u5bb9
p4504
aV\u6559\u7814
p4505
aV\u6559\u7814\u5ba4
p4506
aV\u6559\u79d1\u4e66
p4507
aV\u6559\u7a0b
p4508
aV\u6559\u8005
p4509
aV\u6559\u804c\u5458
p4510
aV\u6559\u80b2
p4511
aV\u6559\u80b2\u5956
p4512
aV\u6559\u80b2\u5de5\u4f5c\u8005
p4513
aV\u6559\u80b2\u8d44\u6e90
p4514
aV\u6559\u80b2\u90e8
p4515
aV\u6559\u8bad
p4516
aV\u6559\u8f85
p4517
aV\u6563\u5217
p4518
aV\u656c\u8bf7
p4519
aV\u656c\u91cd
p4520
aV\u6570\u4e2a
p4521
aV\u6570\u4f4d
p4522
aV\u6570\u503c
p4523
aV\u6570\u5341\u4e2a
p4524
aV\u6570\u5341\u9879
p4525
aV\u6570\u5343\u4e2a
p4526
aV\u6570\u5343\u7bc7
p4527
aV\u6570\u5b57
p4528
aV\u6570\u5b57\u5316
p4529
aV\u6570\u5b57\u56fe\u50cf
p4530
aV\u6570\u5b57\u56fe\u50cf\u5904\u7406
p4531
aV\u6570\u5b57\u7535\u8def
p4532
aV\u6570\u5b66
p4533
aV\u6570\u5b66\u5206\u6790
p4534
aV\u6570\u5b66\u539f\u7406
p4535
aV\u6570\u5b66\u5bb6
p4536
aV\u6570\u5b66\u65b9\u6cd5
p4537
aV\u6570\u5b66\u6a21\u578b
p4538
aV\u6570\u5b66\u7cfb
p4539
aV\u6570\u5b66\u8ba1\u7b97
p4540
aV\u6570\u5e74
p4541
aV\u6570\u636e
p4542
aV\u6570\u636e\u4ed3\u5e93
p4543
aV\u6570\u636e\u4f20\u8f93
p4544
aV\u6570\u636e\u5206\u5e03
p4545
aV\u6570\u636e\u5206\u6790
p4546
aV\u6570\u636e\u5305
p4547
aV\u6570\u636e\u538b\u7f29
p4548
aV\u6570\u636e\u5904\u7406
p4549
aV\u6570\u636e\u5907\u4efd
p4550
aV\u6570\u636e\u5b89\u5168
p4551
aV\u6570\u636e\u5e93
p4552
aV\u6570\u636e\u5e93\u5b89\u5168
p4553
aV\u6570\u636e\u5e93\u7ba1\u7406\u5458
p4554
aV\u6570\u636e\u5e93\u7cfb\u7edf
p4555
aV\u6570\u636e\u6062\u590d
p4556
aV\u6570\u636e\u6316\u6398
p4557
aV\u6570\u636e\u6a21\u578b
p4558
aV\u6570\u636e\u7ba1\u7406
p4559
aV\u6570\u636e\u7c7b\u578b
p4560
aV\u6570\u636e\u7cfb\u7edf
p4561
aV\u6570\u636e\u7ec4\u7ec7
p4562
aV\u6570\u636e\u7ed3\u6784
p4563
aV\u6570\u636e\u8868\u793a
p4564
aV\u6570\u636e\u901a\u4fe1
p4565
aV\u6570\u63a7
p4566
aV\u6570\u63a7\u6280\u672f
p4567
aV\u6570\u672c
p4568
aV\u6570\u6a21
p4569
aV\u6570\u7406
p4570
aV\u6570\u7406\u7cfb
p4571
aV\u6570\u7406\u7edf\u8ba1
p4572
aV\u6570\u7406\u903b\u8f91
p4573
aV\u6570\u767e\u4e07
p4574
aV\u6570\u76ee
p4575
aV\u6570\u7801\u76f8\u673a
p4576
aV\u6570\u79cd
p4577
aV\u6570\u7ae0
p4578
aV\u6570\u7ec4
p4579
aV\u6570\u901a
p4580
aV\u6570\u90e8
p4581
aV\u6570\u91cf
p4582
aV\u6570\u91cf\u5316
p4583
aV\u6574\u4e2a
p4584
aV\u6574\u4f53
p4585
aV\u6574\u4f53\u6027
p4586
aV\u6574\u5408
p4587
aV\u6574\u5f62
p4588
aV\u6574\u6570
p4589
aV\u6574\u6bb5
p4590
aV\u6574\u6d41
p4591
aV\u6574\u6d41\u5668
p4592
aV\u6574\u7406
p4593
aV\u6574\u7ae0
p4594
aV\u6574\u95f4
p4595
aV\u6587\u4ef6
p4596
aV\u6587\u4ef6\u4f20\u8f93
p4597
aV\u6587\u4ef6\u683c\u5f0f
p4598
aV\u6587\u4ef6\u7cfb\u7edf
p4599
aV\u6587\u4f53
p4600
aV\u6587\u5316
p4601
aV\u6587\u5b57
p4602
aV\u6587\u5b57\u5904\u7406
p4603
aV\u6587\u5b66\u7c7b
p4604
aV\u6587\u5e93
p4605
aV\u6587\u6458
p4606
aV\u6587\u660e
p4607
aV\u6587\u660e\u53f2
p4608
aV\u6587\u672c
p4609
aV\u6587\u672c\u7f16\u8f91
p4610
aV\u6587\u6863
p4611
aV\u6587\u6cd5
p4612
aV\u6587\u6d25
p4613
aV\u6587\u732e
p4614
aV\u6587\u732e\u8d44\u6599
p4615
aV\u6587\u7406
p4616
aV\u6587\u7a3f
p4617
aV\u6587\u7ae0
p4618
aV\u6587\u7b14
p4619
aV\u6587\u804c
p4620
aV\u6587\u96c6
p4621
aV\u6587\u98ce
p4622
aV\u65ad\u8a00
p4623
aV\u65af\u56fe\u52a0\u7279
p4624
aV\u65af\u574e\u4f26
p4625
aV\u65af\u5766\u5c3c\u65af
p4626
aV\u65af\u5766\u798f\u5927\u5b66
p4627
aV\u65af\u5766\u987f
p4628
aV\u65af\u5e02
p4629
aV\u65af\u5eb7\u661f
p4630
aV\u65af\u666e\u6797
p4631
aV\u65af\u8482
p4632
aV\u65af\u8d39\u5c14\u5fb7
p4633
aV\u65b0\u4e00\u4ee3
p4634
aV\u65b0\u4e16\u7eaa
p4635
aV\u65b0\u4e34\u94a2\u548c\u676d\u94a2
p4636
aV\u65b0\u5174
p4637
aV\u65b0\u5174\u5b66\u79d1
p4638
aV\u65b0\u52a0
p4639
aV\u65b0\u578b
p4640
aV\u65b0\u589e
p4641
aV\u65b0\u5f0f
p4642
aV\u65b0\u601d\u8def
p4643
aV\u65b0\u624b
p4644
aV\u65b0\u6559
p4645
aV\u65b0\u6d6a
p4646
aV\u65b0\u6d6a\u6f6e
p4647
aV\u65b0\u7248
p4648
aV\u65b0\u7586
p4649
aV\u65b0\u79c0
p4650
aV\u65b0\u7f16
p4651
aV\u65b0\u8bba
p4652
aV\u65b0\u8fd1
p4653
aV\u65b0\u8fdb\u5c55
p4654
aV\u65b0\u95fb
p4655
aV\u65b0\u95fb\u51fa\u7248
p4656
aV\u65b0\u95fb\u8d44\u8baf
p4657
aV\u65b0\u9896
p4658
aV\u65b9\u4f4d
p4659
aV\u65b9\u4fbf
p4660
aV\u65b9\u5411
p4661
aV\u65b9\u5dee
p4662
aV\u65b9\u5dee\u5206\u6790
p4663
aV\u65b9\u5f0f
p4664
aV\u65b9\u6848
p4665
aV\u65b9\u6cd5
p4666
aV\u65b9\u6cd5\u8bba
p4667
aV\u65b9\u7a0b
p4668
aV\u65b9\u7a0b\u89e3
p4669
aV\u65b9\u7f8e\u742a
p4670
aV\u65b9\u9762
p4671
aV\u65bd\u5854\u7279
p4672
aV\u65bd\u5de5
p4673
aV\u65bd\u5de5\u5355\u4f4d
p4674
aV\u65c5\u6e38
p4675
aV\u65c5\u884c
p4676
aV\u65c5\u884c\u5bb6
p4677
aV\u65c5\u884c\u7f51
p4678
aV\u65cb\u52a8
p4679
aV\u65cb\u6da1
p4680
aV\u65cb\u8f6c
p4681
aV\u65d7\u5e1c
p4682
aV\u65e0\u4eba
p4683
aV\u65e0\u4eba\u533a
p4684
aV\u65e0\u5173
p4685
aV\u65e0\u5173\u7d27\u8981
p4686
aV\u65e0\u53ef
p4687
aV\u65e0\u5904
p4688
aV\u65e0\u5904\u4e0d\u5728
p4689
aV\u65e0\u5916\u4e4e
p4690
aV\u65e0\u5e38
p4691
aV\u65e0\u5e8f
p4692
aV\u65e0\u6240\u4e0d\u5728
p4693
aV\u65e0\u635f
p4694
aV\u65e0\u6570
p4695
aV\u65e0\u6570\u6b21
p4696
aV\u65e0\u6cd5
p4697
aV\u65e0\u7a77
p4698
aV\u65e0\u7ea6\u675f
p4699
aV\u65e0\u7ebf
p4700
aV\u65e0\u7ebf\u7535
p4701
aV\u65e0\u7ebf\u7f51\u7edc
p4702
aV\u65e0\u89c6
p4703
aV\u65e0\u8bba\u662f
p4704
aV\u65e0\u8ff9
p4705
aV\u65e0\u9521\u4eba
p4706
aV\u65e0\u9650
p4707
aV\u65e0\u9700
p4708
aV\u65e2\u6709
p4709
aV\u65e2\u7136
p4710
aV\u65e5\u540e
p4711
aV\u65e5\u5e38
p4712
aV\u65e5\u5e38\u751f\u6d3b
p4713
aV\u65e5\u5fd7
p4714
aV\u65e5\u672c
p4715
aV\u65e5\u672c\u4eac\u90fd\u5927\u5b66
p4716
aV\u65e5\u7167
p4717
aV\u65e5\u76ca
p4718
aV\u65e5\u76ca\u589e\u957f
p4719
aV\u65e5\u8bb0
p4720
aV\u65e5\u8d8b
p4721
aV\u65e7\u7248
p4722
aV\u65e8\u5728
p4723
aV\u65e9\u5c31
p4724
aV\u65e9\u5e74
p4725
aV\u65e9\u671f
p4726
aV\u65e9\u719f
p4727
aV\u65f6\u4ee3
p4728
aV\u65f6\u4ee3\u80cc\u666f
p4729
aV\u65f6\u4f1a
p4730
aV\u65f6\u5019
p4731
aV\u65f6\u5219
p4732
aV\u65f6\u57df
p4733
aV\u65f6\u5e8f
p4734
aV\u65f6\u5e8f\u7535\u8def
p4735
aV\u65f6\u671f
p4736
aV\u65f6\u6ede
p4737
aV\u65f6\u7a7a
p4738
aV\u65f6\u800c
p4739
aV\u65f6\u949f
p4740
aV\u65f6\u95f4
p4741
aV\u65f6\u95f4\u5c3a\u5ea6
p4742
aV\u660e\u4eae
p4743
aV\u660e\u5feb
p4744
aV\u660e\u663e
p4745
aV\u660e\u6670
p4746
aV\u660e\u767d
p4747
aV\u660e\u786e
p4748
aV\u660e\u8fdc
p4749
aV\u6613\u4e8e
p4750
aV\u6613\u5b66
p4751
aV\u6613\u61c2
p4752
aV\u6613\u6559
p4753
aV\u6613\u7528
p4754
aV\u661f\u4e91
p4755
aV\u661f\u5386
p4756
aV\u661f\u7a7a
p4757
aV\u6620\u5c04
p4758
aV\u662f\u4ece
p4759
aV\u662f\u5426
p4760
aV\u662f\u56e0\u4e3a
p4761
aV\u663e\u5361
p4762
aV\u663e\u5f62
p4763
aV\u663e\u5f97
p4764
aV\u663e\u7136
p4765
aV\u663e\u73b0
p4766
aV\u663e\u793a
p4767
aV\u663e\u793a\u5668
p4768
aV\u663e\u89c1
p4769
aV\u663e\u8d6b
p4770
aV\u664b\u804c
p4771
aV\u665a\u8fd1
p4772
aV\u6666\u6da9
p4773
aV\u666e\u53ca
p4774
aV\u666e\u53ca\u8bfb\u7269
p4775
aV\u666e\u5ea6
p4776
aV\u666e\u6717\u514b
p4777
aV\u666e\u9002\u6027
p4778
aV\u666e\u901a
p4779
aV\u666e\u904d
p4780
aV\u666e\u904d\u5b58\u5728
p4781
aV\u666e\u91cc
p4782
aV\u666f\u8c61
p4783
aV\u6676\u4f53\u7ba1
p4784
aV\u6676\u95f8\u7ba1
p4785
aV\u667a\u5546
p4786
aV\u667a\u6167
p4787
aV\u667a\u80fd
p4788
aV\u667a\u80fd\u5316
p4789
aV\u667a\u80fd\u578b
p4790
aV\u667a\u80fd\u624b\u673a
p4791
aV\u667a\u80fd\u673a
p4792
aV\u667a\u80fd\u79d1\u5b66
p4793
aV\u6682\u6001
p4794
aV\u6682\u65f6
p4795
aV\u6697\u793a
p4796
aV\u66b4\u529b
p4797
aV\u66b4\u9732
p4798
aV\u66f2\u7ebf
p4799
aV\u66f2\u9762
p4800
aV\u66f4\u4e3a
p4801
aV\u66f4\u4e3a\u91cd\u8981
p4802
aV\u66f4\u52a0
p4803
aV\u66f4\u540d
p4804
aV\u66f4\u591a
p4805
aV\u66f4\u597d
p4806
aV\u66f4\u5feb
p4807
aV\u66f4\u65b0
p4808
aV\u66f4\u662f
p4809
aV\u66f4\u6b63
p4810
aV\u66f9\u5c1a\u4f1f
p4811
aV\u66fc\u5b81
p4812
aV\u66fc\u5fb7
p4813
aV\u66fc\u6d77\u59c6
p4814
aV\u66fe\u514b\u5a25
p4815
aV\u66fe\u56fd\u5c4f
p4816
aV\u66fe\u591a\u6b21
p4817
aV\u66fe\u7ecf
p4818
aV\u66fe\u950b
p4819
aV\u66ff\u4ee3
p4820
aV\u66ff\u4ee3\u6027
p4821
aV\u66ff\u6362
p4822
aV\u6700\u4e3a
p4823
aV\u6700\u4f18
p4824
aV\u6700\u4f18\u5316
p4825
aV\u6700\u4f18\u6027
p4826
aV\u6700\u4f18\u63a7\u5236
p4827
aV\u6700\u4f4e
p4828
aV\u6700\u4f73
p4829
aV\u6700\u521d
p4830
aV\u6700\u524d\u6cbf
p4831
aV\u6700\u540e
p4832
aV\u6700\u5927
p4833
aV\u6700\u597d
p4834
aV\u6700\u5c0f
p4835
aV\u6700\u5c0f\u5316
p4836
aV\u6700\u5e7f
p4837
aV\u6700\u5e95\u5c42
p4838
aV\u6700\u65b0
p4839
aV\u6700\u65b0\u7248
p4840
aV\u6700\u65b0\u8fdb\u5c55
p4841
aV\u6700\u65e9
p4842
aV\u6700\u7ec8
p4843
aV\u6700\u8fd1
p4844
aV\u6700\u901f
p4845
aV\u6700\u9ad8
p4846
aV\u6700\u9ad8\u4eba\u6c11\u6cd5\u9662
p4847
aV\u6708\u672c
p4848
aV\u6709\u4e1d\u5206\u88c2
p4849
aV\u6709\u4e9b
p4850
aV\u6709\u4eba
p4851
aV\u6709\u4f55\u610f\u4e49
p4852
aV\u6709\u5173
p4853
aV\u6709\u5229\u4e8e
p4854
aV\u6709\u529b
p4855
aV\u6709\u52a9\u4e8e
p4856
aV\u6709\u53e3\u7686\u7891
p4857
aV\u6709\u53f2
p4858
aV\u6709\u540d\u6c14
p4859
aV\u6709\u5411\u56fe
p4860
aV\u6709\u5e8f
p4861
aV\u6709\u6240
p4862
aV\u6709\u6548
p4863
aV\u6709\u6548\u6027
p4864
aV\u6709\u65f6
p4865
aV\u6709\u672c
p4866
aV\u6709\u673a
p4867
aV\u6709\u673a\u4f53
p4868
aV\u6709\u673a\u5316\u5b66
p4869
aV\u6709\u6ca1\u6709
p4870
aV\u6709\u6e90
p4871
aV\u6709\u7528
p4872
aV\u6709\u754c\u6027
p4873
aV\u6709\u76ca
p4874
aV\u6709\u7740
p4875
aV\u6709\u8272
p4876
aV\u6709\u8da3
p4877
aV\u6709\u8f83
p4878
aV\u6709\u95ee\u5fc5\u7b54
p4879
aV\u6709\u9650
p4880
aV\u6709\u9650\u516c\u53f8
p4881
aV\u670b\u53cb
p4882
aV\u670d\u52a1
p4883
aV\u670d\u52a1\u4e1a
p4884
aV\u670d\u52a1\u533a
p4885
aV\u670d\u52a1\u5668
p4886
aV\u6717\u8baf
p4887
aV\u671d\u4ed3
p4888
aV\u671d\u5411
p4889
aV\u671f\u520a
p4890
aV\u671f\u5f85
p4891
aV\u671f\u671b
p4892
aV\u671f\u95f4
p4893
aV\u6728\u9a6c
p4894
aV\u672a\u53d1\u8868\u8fc7
p4895
aV\u672a\u53ef\u77e5
p4896
aV\u672a\u6765
p4897
aV\u672a\u77e5
p4898
aV\u672a\u80fd
p4899
aV\u672c\u4e66
p4900
aV\u672c\u4eba
p4901
aV\u672c\u518c
p4902
aV\u672c\u5730
p4903
aV\u672c\u5b66\u79d1
p4904
aV\u672c\u624b\u518c
p4905
aV\u672c\u6587
p4906
aV\u672c\u6b21
p4907
aV\u672c\u7248
p4908
aV\u672c\u7740
p4909
aV\u672c\u79d1
p4910
aV\u672c\u79d1\u4e13\u4e1a
p4911
aV\u672c\u79d1\u6bd5\u4e1a
p4912
aV\u672c\u79d1\u751f
p4913
aV\u672c\u7ae0
p4914
aV\u672c\u80fd
p4915
aV\u672c\u8bcd\u5178
p4916
aV\u672c\u8d28
p4917
aV\u672c\u8d28\u5c5e\u6027
p4918
aV\u672c\u8d28\u7279\u5f81
p4919
aV\u672c\u8eab
p4920
aV\u672c\u90e8
p4921
aV\u672f\u8bed
p4922
aV\u672f\u8bed\u8868
p4923
aV\u6731\u514b\u66fc
p4924
aV\u6731\u5229\u4e9a
p4925
aV\u6731\u660e
p4926
aV\u6731\u82e5\u513f
p4927
aV\u673a\u4f53
p4928
aV\u673a\u5236
p4929
aV\u673a\u5668
p4930
aV\u673a\u5668\u4eba
p4931
aV\u673a\u5668\u7ffb\u8bd1
p4932
aV\u673a\u5668\u8bed\u8a00
p4933
aV\u673a\u578b
p4934
aV\u673a\u667a
p4935
aV\u673a\u6784
p4936
aV\u673a\u68b0
p4937
aV\u673a\u68b0\u5236\u9020
p4938
aV\u673a\u68b0\u52a0\u5de5
p4939
aV\u673a\u68b0\u5de5\u7a0b
p4940
aV\u673a\u68b0\u7cfb\u7edf
p4941
aV\u673a\u68b0\u8bba
p4942
aV\u673a\u68b0\u8bbe\u8ba1
p4943
aV\u673a\u68b0\u96f6\u4ef6
p4944
aV\u673a\u7406
p4945
aV\u673a\u7528\u6237
p4946
aV\u673a\u7535
p4947
aV\u673a\u7535\u4ea7\u54c1
p4948
aV\u673a\u7535\u5de5\u7a0b
p4949
aV\u673a\u7535\u7c7b
p4950
aV\u673a\u7bb1
p4951
aV\u673a\u7fa4\u7cfb\u7edf
p4952
aV\u673a\u8bd1
p4953
aV\u673a\u9047
p4954
aV\u6740\u6bd2
p4955
aV\u6742\u5fd7
p4956
aV\u6743\u5a01
p4957
aV\u6743\u5a01\u4e13\u5bb6
p4958
aV\u6743\u5a01\u4eba\u58eb
p4959
aV\u6743\u5a01\u6027
p4960
aV\u6743\u8861
p4961
aV\u6743\u91cd
p4962
aV\u6743\u9650
p4963
aV\u674e\u4e1c
p4964
aV\u674e\u4e3d\u4f1f
p4965
aV\u674e\u4f20\u5168
p4966
aV\u674e\u5065\u5229
p4967
aV\u674e\u5982
p4968
aV\u674e\u5b88\u4eac
p4969
aV\u674e\u6653\u79cb
p4970
aV\u674e\u79c0\u4e91
p4971
aV\u674e\u79cb\u96f6
p4972
aV\u674e\u80dc\u6797
p4973
aV\u674e\u90c1\u8363
p4974
aV\u6750\u6599
p4975
aV\u6750\u6599\u529b\u5b66
p4976
aV\u6751\u5e84
p4977
aV\u675c\u5229
p4978
aV\u675f\u4e4b\u9ad8\u9601
p4979
aV\u6761\u4ef6
p4980
aV\u6761\u4f8b
p4981
aV\u6761\u6b3e
p4982
aV\u6761\u7406\u6e05\u6670
p4983
aV\u6765\u5230
p4984
aV\u6765\u6e90
p4985
aV\u6765\u6e90\u4e8e
p4986
aV\u6765\u770b
p4987
aV\u6765\u81ea
p4988
aV\u6765\u8bf4
p4989
aV\u6768\u536b\u534e
p4990
aV\u676d\u5dde\u4eba
p4991
aV\u6770\u51fa
p4992
aV\u6770\u51fa\u8d21\u732e
p4993
aV\u6770\u592b
p4994
aV\u677e\u6ecb\u53bf
p4995
aV\u677f\u6881
p4996
aV\u6781\u4e3a
p4997
aV\u6781\u503c
p4998
aV\u6781\u5176
p4999
aV\u6781\u5176\u91cd\u8981
p5000
aV\u6781\u5177
p5001
aV\u6781\u529b
p5002
aV\u6781\u5927
p5003
aV\u6781\u5bcc
p5004
aV\u6781\u5c0f
p5005
aV\u6781\u5c11
p5006
aV\u6781\u5f3a
p5007
aV\u6781\u7684
p5008
aV\u6781\u9650
p5009
aV\u6781\u9ad8
p5010
aV\u6784\u4ef6
p5011
aV\u6784\u5efa
p5012
aV\u6784\u601d
p5013
aV\u6784\u6210
p5014
aV\u6784\u67b6
p5015
aV\u6784\u9020
p5016
aV\u6784\u9020\u6027
p5017
aV\u6790\u53d6
p5018
aV\u679a\u4e3e
p5019
aV\u679c\u51b3
p5020
aV\u679c\u6027
p5021
aV\u67b6\u6784
p5022
aV\u67b6\u6784\u5e08
p5023
aV\u67b6\u6784\u8bbe\u8ba1
p5024
aV\u67b6\u8bbe
p5025
aV\u67cf\u514b\u83b1
p5026
aV\u67cf\u6797
p5027
aV\u67d0\u4e2a
p5028
aV\u67d0\u4e9b
p5029
aV\u67d0\u79cd
p5030
aV\u67d0\u79cd\u7a0b\u5ea6
p5031
aV\u67d4\u6027
p5032
aV\u67e5\u4f1f
p5033
aV\u67e5\u5c14\u65af
p5034
aV\u67e5\u627e
p5035
aV\u67e5\u8be2
p5036
aV\u67e5\u8be2\u5904\u7406
p5037
aV\u67e5\u8be2\u8bed\u8a00
p5038
aV\u67e5\u9519
p5039
aV\u67e5\u9605
p5040
aV\u67f4\u6cb9\u673a
p5041
aV\u6807\u51c6
p5042
aV\u6807\u51c6\u5316
p5043
aV\u6807\u5fd7
p5044
aV\u6807\u660e
p5045
aV\u6807\u6ce8
p5046
aV\u6807\u8bb0
p5047
aV\u6807\u8bc6\u8bed\u8a00
p5048
aV\u6807\u97f3
p5049
aV\u6807\u9898
p5050
aV\u680f\u76ee
p5051
aV\u6811\u5e93
p5052
aV\u6811\u6797
p5053
aV\u6821\u5bf9
p5054
aV\u6821\u6b63
p5055
aV\u6821\u7ea7
p5056
aV\u6821\u8005
p5057
aV\u6821\u8272
p5058
aV\u6821\u8ba2
p5059
aV\u682a\u5f0f\u4f1a\u793e
p5060
aV\u6837\u4f8b
p5061
aV\u6837\u5f0f
p5062
aV\u6837\u672c
p5063
aV\u6837\u6761
p5064
aV\u6838\u5b9e
p5065
aV\u6838\u5fc3
p5066
aV\u6838\u5fc3\u5185\u5bb9
p5067
aV\u6838\u5fc3\u601d\u60f3
p5068
aV\u6838\u5fc3\u6210\u5458
p5069
aV\u6838\u5fc3\u6280\u672f
p5070
aV\u6838\u6280\u672f
p5071
aV\u6839\u57fa
p5072
aV\u6839\u636e
p5073
aV\u6839\u672c
p5074
aV\u6839\u6e90
p5075
aV\u683c\u4e01\u6839
p5076
aV\u683c\u52d2\u8bfa\u5e03\u5c14
p5077
aV\u683c\u5f0f
p5078
aV\u683c\u5f0f\u5316
p5079
aV\u683c\u8a00
p5080
aV\u683c\u96f7
p5081
aV\u6846\u67b6
p5082
aV\u6846\u67b6\u7ed3\u6784
p5083
aV\u6848\u4f8b
p5084
aV\u6848\u5934
p5085
aV\u684c\u9762
p5086
aV\u6851\u5fb7\u62c9
p5087
aV\u6865\u6881
p5088
aV\u6881\u6653\u59ae
p5089
aV\u6881\u948a
p5090
aV\u6885\u58eb
p5091
aV\u6885\u9686
p5092
aV\u68a6\u60f3
p5093
aV\u68a6\u60f3\u6210\u771f
p5094
aV\u68af\u5ea6
p5095
aV\u68b3\u7406
p5096
aV\u68c0\u67e5
p5097
aV\u68c0\u67e5\u548c
p5098
aV\u68c0\u67e5\u70b9
p5099
aV\u68c0\u6d4b
p5100
aV\u68c0\u7d22
p5101
aV\u68c0\u9a8c
p5102
aV\u68ee\u6797
p5103
aV\u690d\u7269
p5104
aV\u692d\u5706
p5105
aV\u6982\u51b5
p5106
aV\u6982\u5ff5
p5107
aV\u6982\u5ff5\u5206\u6790
p5108
aV\u6982\u5ff5\u5316
p5109
aV\u6982\u5ff5\u8bbe\u8ba1
p5110
aV\u6982\u62ec
p5111
aV\u6982\u62ec\u6027
p5112
aV\u6982\u7387
p5113
aV\u6982\u7387\u5206\u5e03
p5114
aV\u6982\u7387\u5206\u6790
p5115
aV\u6982\u7387\u5bc6\u5ea6\u51fd\u6570
p5116
aV\u6982\u7387\u6a21\u578b
p5117
aV\u6982\u7387\u8bba
p5118
aV\u6982\u8981
p5119
aV\u6982\u89c2
p5120
aV\u6982\u8bba
p5121
aV\u6982\u8ff0
p5122
aV\u6a21\u4eff\u6027
p5123
aV\u6a21\u5177
p5124
aV\u6a21\u5177\u8bbe\u8ba1
p5125
aV\u6a21\u5757
p5126
aV\u6a21\u578b
p5127
aV\u6a21\u578b\u5e93
p5128
aV\u6a21\u5f0f
p5129
aV\u6a21\u5f0f\u8bc6\u522b
p5130
aV\u6a21\u6001\u903b\u8f91
p5131
aV\u6a21\u62df
p5132
aV\u6a21\u62df\u5668
p5133
aV\u6a21\u62df\u7a0b\u5e8f
p5134
aV\u6a21\u62df\u9000\u706b
p5135
aV\u6a21\u62df\u91cf
p5136
aV\u6a21\u6570
p5137
aV\u6a21\u6570\u8f6c\u6362
p5138
aV\u6a21\u677f
p5139
aV\u6a21\u7cca
p5140
aV\u6a21\u7cca\u6027
p5141
aV\u6a21\u7cca\u63a7\u5236
p5142
aV\u6a21\u7cca\u96c6
p5143
aV\u6a2a\u5411
p5144
aV\u6a2a\u65ad
p5145
aV\u6a2a\u8de8
p5146
aV\u6a5f\u5236
p5147
aV\u6a5f\u69cb
p5148
aV\u6a61\u5b9e
p5149
aV\u6a61\u6811
p5150
aV\u6a80\u5c9b
p5151
aV\u6b21\u7ea7
p5152
aV\u6b22\u6b23
p5153
aV\u6b22\u8fce
p5154
aV\u6b23\u8d4f
p5155
aV\u6b27\u6d32
p5156
aV\u6b32\u5ff5
p5157
aV\u6b3a\u9a97
p5158
aV\u6b63\u5219
p5159
aV\u6b63\u5219\u8868\u8fbe\u5f0f
p5160
aV\u6b63\u5411
p5161
aV\u6b63\u5728
p5162
aV\u6b63\u5982
p5163
aV\u6b63\u5f0f
p5164
aV\u6b63\u6587
p5165
aV\u6b63\u662f
p5166
aV\u6b63\u786e
p5167
aV\u6b63\u786e\u5904\u7406
p5168
aV\u6b63\u786e\u6027
p5169
aV\u6b63\u786e\u7406\u89e3
p5170
aV\u6b63\u89c4
p5171
aV\u6b63\u8bcd\u6cd5
p5172
aV\u6b64\u4e66
p5173
aV\u6b64\u57fa\u7840
p5174
aV\u6b64\u5916
p5175
aV\u6b64\u6b21
p5176
aV\u6b64\u7c7b
p5177
aV\u6b65\u5165
p5178
aV\u6b65\u884c
p5179
aV\u6b65\u8fdb
p5180
aV\u6b65\u9aa4
p5181
aV\u6b66\u5668
p5182
aV\u6b66\u5668\u88c5\u5907
p5183
aV\u6b66\u6c49\u5927\u5b66
p5184
aV\u6b66\u88c5\u51b2\u7a81
p5185
aV\u6b67\u4e49
p5186
aV\u6b7b\u4ea1
p5187
aV\u6bb5\u843d
p5188
aV\u6bbf\u5802
p5189
aV\u6bcf\u4e00
p5190
aV\u6bcf\u4e2a
p5191
aV\u6bcf\u5929
p5192
aV\u6bcf\u79cd
p5193
aV\u6bcf\u7ae0
p5194
aV\u6bd4\u5229
p5195
aV\u6bd4\u5229\u65f6
p5196
aV\u6bd4\u5982
p5197
aV\u6bd4\u5bf9
p5198
aV\u6bd4\u8f83
p5199
aV\u6bd4\u8f83\u590d\u6742
p5200
aV\u6bd5\u4e1a
p5201
aV\u6bdb\u4f73\u9e4f
p5202
aV\u6beb\u4e0d
p5203
aV\u6beb\u65e0
p5204
aV\u6c11\u4e3b
p5205
aV\u6c11\u4e3b\u4e3b\u4e49
p5206
aV\u6c11\u65cf
p5207
aV\u6c11\u6cd5
p5208
aV\u6c11\u6cd5\u5b66
p5209
aV\u6c14\u52a8\u529b
p5210
aV\u6c14\u52bf\u78c5\u7934
p5211
aV\u6c14\u5ea6
p5212
aV\u6c14\u6c1b
p5213
aV\u6c34\u5370
p5214
aV\u6c34\u5e73
p5215
aV\u6c34\u8d28\u8bc4\u4ef7
p5216
aV\u6c38\u4e45
p5217
aV\u6c38\u6052\u4f20\u8bf4
p5218
aV\u6c42\u5b9e
p5219
aV\u6c42\u89e3
p5220
aV\u6c47\u603b
p5221
aV\u6c47\u603b\u8868
p5222
aV\u6c47\u7f16
p5223
aV\u6c47\u7f16\u5668
p5224
aV\u6c47\u7f16\u7a0b\u5e8f
p5225
aV\u6c47\u7f16\u8bed\u8a00
p5226
aV\u6c47\u96c6
p5227
aV\u6c49\u5316
p5228
aV\u6c49\u5821
p5229
aV\u6c49\u5821\u5927\u5b66
p5230
aV\u6c49\u5b57
p5231
aV\u6c49\u6587
p5232
aV\u6c49\u660e\u7801
p5233
aV\u6c49\u82f1
p5234
aV\u6c49\u8bed
p5235
aV\u6c5f\u5357
p5236
aV\u6c5f\u5b81
p5237
aV\u6c5f\u6e56
p5238
aV\u6c5f\u82cf
p5239
aV\u6c6a\u6e90
p5240
aV\u6c7d\u8f66
p5241
aV\u6c83\u5c14\u592b
p5242
aV\u6c88\u539f
p5243
aV\u6c99\u9f99
p5244
aV\u6c9f\u901a
p5245
aV\u6ca1\u5b66
p5246
aV\u6ca1\u6709
p5247
aV\u6cae\u4e27
p5248
aV\u6cb3\u5357
p5249
aV\u6cb3\u5357\u7701
p5250
aV\u6cb3\u7554
p5251
aV\u6cb9\u6cf5
p5252
aV\u6cb9\u6d41
p5253
aV\u6cb9\u7530
p5254
aV\u6cbb\u5b66
p5255
aV\u6cbb\u7597
p5256
aV\u6cbb\u7597\u5e08
p5257
aV\u6cd5\u5206\u6790
p5258
aV\u6cd5\u5219
p5259
aV\u6cd5\u56fd
p5260
aV\u6cd5\u5b66
p5261
aV\u6cd5\u5f8b
p5262
aV\u6cd5\u5f8b\u6cd5\u89c4
p5263
aV\u6cd5\u5f8b\u7cfb
p5264
aV\u6cd5\u6587
p5265
aV\u6cd5\u89c4
p5266
aV\u6ce2\u5170
p5267
aV\u6ce2\u5f62
p5268
aV\u6ce2\u5f62\u53d1\u751f\u5668
p5269
aV\u6ce2\u9e3f
p5270
aV\u6ce8\u518c\u8868
p5271
aV\u6ce8\u610f
p5272
aV\u6ce8\u610f\u4e8b\u9879
p5273
aV\u6ce8\u610f\u529b
p5274
aV\u6ce8\u8bb0
p5275
aV\u6ce8\u91ca
p5276
aV\u6ce8\u91cd
p5277
aV\u6cf0\u6597
p5278
aV\u6cfd\u5c14\u8fea\u9f50
p5279
aV\u6cfd\u62c9\u5179\u5c3c
p5280
aV\u6d1b\u4f26\u8328
p5281
aV\u6d1b\u65af
p5282
aV\u6d1e\u5bdf\u529b
p5283
aV\u6d3b\u529b
p5284
aV\u6d3b\u52a8
p5285
aV\u6d3b\u52d5
p5286
aV\u6d3b\u6cfc
p5287
aV\u6d3b\u7740
p5288
aV\u6d3b\u8dc3
p5289
aV\u6d3e\u751f
p5290
aV\u6d41\u4f53
p5291
aV\u6d41\u4f53\u529b\u5b66
p5292
aV\u6d41\u5f0f
p5293
aV\u6d41\u5f62
p5294
aV\u6d41\u63a7\u5236
p5295
aV\u6d41\u6c34\u7ebf
p5296
aV\u6d41\u6d3e
p5297
aV\u6d41\u7545
p5298
aV\u6d41\u7545\u6027
p5299
aV\u6d41\u7a0b
p5300
aV\u6d41\u7a0b\u56fe
p5301
aV\u6d41\u884c
p5302
aV\u6d41\u91cf
p5303
aV\u6d45\u51fa
p5304
aV\u6d45\u663e
p5305
aV\u6d45\u8584
p5306
aV\u6d4b\u5b9a
p5307
aV\u6d4b\u5ea6
p5308
aV\u6d4b\u63a7
p5309
aV\u6d4b\u8bd5
p5310
aV\u6d4b\u8bd5\u4eba\u5458
p5311
aV\u6d4b\u8bd5\u5de5\u5177
p5312
aV\u6d4b\u8bd5\u65b9\u6cd5
p5313
aV\u6d4b\u91cf
p5314
aV\u6d4b\u91cf\u65b9\u6cd5
p5315
aV\u6d4e\u94a2
p5316
aV\u6d4f\u89c8
p5317
aV\u6d4f\u89c8\u5668
p5318
aV\u6d53\u539a
p5319
aV\u6d53\u7f29
p5320
aV\u6d59\u6c5f
p5321
aV\u6d69\u701a
p5322
aV\u6d6e\u70b9\u6570
p5323
aV\u6d6e\u70b9\u8fd0\u7b97
p5324
aV\u6d77\u57ce\u4eba
p5325
aV\u6d77\u5916
p5326
aV\u6d77\u5cb8\u7ebf
p5327
aV\u6d77\u5fb7\u5821
p5328
aV\u6d77\u62a5
p5329
aV\u6d77\u6d0b
p5330
aV\u6d77\u6d9b
p5331
aV\u6d77\u91cf
p5332
aV\u6d82\u6539
p5333
aV\u6d88\u58f0
p5334
aV\u6d88\u606f
p5335
aV\u6d88\u6b67
p5336
aV\u6d88\u8017
p5337
aV\u6d88\u89e3
p5338
aV\u6d88\u9063
p5339
aV\u6d88\u9664
p5340
aV\u6d88\u9690
p5341
aV\u6d89\u53ca
p5342
aV\u6d89\u730e
p5343
aV\u6da1\u5377
p5344
aV\u6da8\u843d
p5345
aV\u6db2\u4f4d
p5346
aV\u6db5\u4e49
p5347
aV\u6db5\u62ec
p5348
aV\u6db5\u76d6
p5349
aV\u6db5\u76d6\u9762
p5350
aV\u6dd1\u8a89
p5351
aV\u6dd1\u9759
p5352
aV\u6df1\u5165
p5353
aV\u6df1\u5165\u5206\u6790
p5354
aV\u6df1\u5165\u63a2\u8ba8
p5355
aV\u6df1\u5165\u6d45\u51fa
p5356
aV\u6df1\u5165\u7814\u7a76
p5357
aV\u6df1\u5165\u7ec6\u81f4
p5358
aV\u6df1\u5207
p5359
aV\u6df1\u523b
p5360
aV\u6df1\u523b\u5f71\u54cd
p5361
aV\u6df1\u523b\u601d\u60f3
p5362
aV\u6df1\u523b\u7406\u89e3
p5363
aV\u6df1\u53d7
p5364
aV\u6df1\u5965\u96be\u61c2
p5365
aV\u6df1\u5ea6
p5366
aV\u6df1\u611f
p5367
aV\u6df1\u77e5
p5368
aV\u6df1\u8fdc
p5369
aV\u6df1\u9020
p5370
aV\u6df7\u4e71
p5371
aV\u6df7\u5408
p5372
aV\u6df7\u6c8c
p5373
aV\u6df7\u6dc6
p5374
aV\u6dfb\u52a0
p5375
aV\u6e05\u534e\u56ed
p5376
aV\u6e05\u534e\u5927\u5b66
p5377
aV\u6e05\u534e\u5927\u5b66\u51fa\u7248\u793e
p5378
aV\u6e05\u5355
p5379
aV\u6e05\u6670
p5380
aV\u6e05\u695a
p5381
aV\u6e10\u6b21
p5382
aV\u6e10\u8fd1
p5383
aV\u6e17\u900f
p5384
aV\u6e17\u900f\u5230
p5385
aV\u6e20\u9053
p5386
aV\u6e29\u5ea6
p5387
aV\u6e38\u620f
p5388
aV\u6e38\u6807
p5389
aV\u6e4d\u6d41
p5390
aV\u6e56\u5317\u7701
p5391
aV\u6e90\u4e8e
p5392
aV\u6e90\u4ee3\u7801
p5393
aV\u6e90\u5934
p5394
aV\u6e90\u6587\u4ef6
p5395
aV\u6e90\u7801
p5396
aV\u6e90\u7a0b\u5e8f
p5397
aV\u6e90\u81ea
p5398
aV\u6ed1\u5757
p5399
aV\u6ed1\u6a21
p5400
aV\u6eda\u8f6c
p5401
aV\u6ede\u540e
p5402
aV\u6ee1\u6587
p5403
aV\u6ee1\u8db3
p5404
aV\u6ee4\u6ce2
p5405
aV\u6ee4\u6ce2\u5668
p5406
aV\u6ee5\u89de
p5407
aV\u6ef4\u6c34
p5408
aV\u6f14\u5316
p5409
aV\u6f14\u5316\u8fc7\u7a0b
p5410
aV\u6f14\u53d8
p5411
aV\u6f14\u793a
p5412
aV\u6f14\u8bb2
p5413
aV\u6f14\u8bf4
p5414
aV\u6f14\u8fdb
p5415
aV\u6f2b\u753b
p5416
aV\u6f2b\u753b\u5bb6
p5417
aV\u6f2b\u8c08
p5418
aV\u6f2b\u957f
p5419
aV\u6f5c\u5728
p5420
aV\u6f5c\u5fc3\u7814\u7a76
p5421
aV\u6f6e\u6d41
p5422
aV\u6f84\u6e05
p5423
aV\u6fb3\u6d32
p5424
aV\u6fc0\u5149
p5425
aV\u6fc0\u52b1
p5426
aV\u6fc0\u53d1
p5427
aV\u6fc0\u53d1\u6001
p5428
aV\u6fc0\u6d3b\u6269\u6563
p5429
aV\u6fc0\u6d6a
p5430
aV\u6fd2\u5371
p5431
aV\u706b\u529b
p5432
aV\u706b\u63a7
p5433
aV\u706f\u5149
p5434
aV\u7070\u5ea6
p5435
aV\u7070\u7bb1
p5436
aV\u7070\u8272
p5437
aV\u7075\u5de7
p5438
aV\u7075\u654f
p5439
aV\u7075\u654f\u5ea6
p5440
aV\u7075\u654f\u6027
p5441
aV\u7075\u6d3b
p5442
aV\u7075\u9b42
p5443
aV\u707e\u96be
p5444
aV\u70ae\u5f39
p5445
aV\u70ae\u624b
p5446
aV\u70b9\u51fb
p5447
aV\u70b9\u6e90
p5448
aV\u70b9\u8bc4
p5449
aV\u70b9\u9635
p5450
aV\u70bc\u6cb9\u5382
p5451
aV\u70bc\u94c1
p5452
aV\u70ed\u529b\u5b66
p5453
aV\u70ed\u60c5
p5454
aV\u70ed\u70b9
p5455
aV\u70ed\u70b9\u8bdd\u9898
p5456
aV\u70ed\u70b9\u95ee\u9898
p5457
aV\u70ed\u7231
p5458
aV\u70ed\u80fd
p5459
aV\u70ed\u9500
p5460
aV\u70ed\u95e8
p5461
aV\u7121\u908a
p5462
aV\u7126\u70b9
p5463
aV\u7136\u540e
p5464
aV\u7136\u800c
p5465
aV\u715e\u8d39\u82e6\u5fc3
p5466
aV\u7167\u660e
p5467
aV\u7167\u7247
p5468
aV\u718a\u4fe1\u94f6
p5469
aV\u718a\u5f7c\u7279
p5470
aV\u719f\u6089
p5471
aV\u719f\u7ec3
p5472
aV\u7206\u7b11
p5473
aV\u722d\u8b70
p5474
aV\u7231\u597d
p5475
aV\u7231\u597d\u8005
p5476
aV\u7231\u7565
p5477
aV\u7231\u7acb\u4fe1
p5478
aV\u7235\u58eb\u4e50\u961f
p5479
aV\u7247\u5143
p5480
aV\u7247\u65ad
p5481
aV\u7248\u5757
p5482
aV\u7248\u672c
p5483
aV\u7248\u6b21
p5484
aV\u7248\u9762
p5485
aV\u724c\u7167
p5486
aV\u725b\u6d25\u5927\u5b66
p5487
aV\u725b\u987f
p5488
aV\u7269\u6599
p5489
aV\u7269\u6743\u6cd5
p5490
aV\u7269\u6d41
p5491
aV\u7269\u7406
p5492
aV\u7269\u7406\u5316\u5b66
p5493
aV\u7269\u7406\u5b66
p5494
aV\u7269\u7406\u5c42
p5495
aV\u7269\u7406\u7cfb
p5496
aV\u7269\u8d28
p5497
aV\u7269\u8d44
p5498
aV\u7279\u522b
p5499
aV\u7279\u522b\u5f3a\u8c03
p5500
aV\u7279\u5730
p5501
aV\u7279\u5b9a
p5502
aV\u7279\u5f81
p5503
aV\u7279\u5f81\u5206\u6790
p5504
aV\u7279\u5f81\u53c2\u6570
p5505
aV\u7279\u5f81\u63cf\u8ff0
p5506
aV\u7279\u5f81\u63d0\u53d6
p5507
aV\u7279\u5f81\u9009\u62e9
p5508
aV\u7279\u6027
p5509
aV\u7279\u610f
p5510
aV\u7279\u6280
p5511
aV\u7279\u62db
p5512
aV\u7279\u6548\u5b57
p5513
aV\u7279\u6709
p5514
aV\u7279\u6743
p5515
aV\u7279\u6b8a
p5516
aV\u7279\u6ce2
p5517
aV\u7279\u70b9
p5518
aV\u7279\u7b49\u5956
p5519
aV\u7279\u7ea6
p5520
aV\u7279\u7eb3
p5521
aV\u7279\u7f57\u59c6\u745f
p5522
aV\u7279\u8058
p5523
aV\u7279\u8272
p5524
aV\u7279\u91cc\u5c14
p5525
aV\u7280\u5229
p5526
aV\u72af\u7f6a
p5527
aV\u72b6\u51b5
p5528
aV\u72b6\u6001
p5529
aV\u72b6\u6001\u53d8\u91cf
p5530
aV\u72b6\u6001\u673a
p5531
aV\u72b9\u4ed6
p5532
aV\u72c2\u6f6e
p5533
aV\u72ec\u6811\u4e00\u5e1c
p5534
aV\u72ec\u7279
p5535
aV\u72ec\u7acb
p5536
aV\u72ec\u7acb\u6027
p5537
aV\u72ed\u9698
p5538
aV\u731b\u70c8
p5539
aV\u731c\u60f3
p5540
aV\u731c\u6d4b
p5541
aV\u732e\u7ed9
p5542
aV\u7387\u5148
p5543
aV\u738b\u4f4d
p5544
aV\u738b\u56fd
p5545
aV\u738b\u58eb\u5143
p5546
aV\u738b\u5b50
p5547
aV\u738b\u6587\u5b8f
p5548
aV\u738b\u6885\u4e49
p5549
aV\u738b\u73ca
p5550
aV\u738b\u745e\u829d
p5551
aV\u738b\u7533\u57f9
p5552
aV\u738b\u8fea\u8457
p5553
aV\u739b\u4e3d
p5554
aV\u739b\u5229
p5555
aV\u739b\u683c\u4e3d\u7279
p5556
aV\u73a9\u5bb6
p5557
aV\u73a9\u6e38\u620f
p5558
aV\u73af\u4fdd
p5559
aV\u73af\u5883
p5560
aV\u73af\u5883\u4fdd\u62a4
p5561
aV\u73af\u5883\u5de5\u7a0b
p5562
aV\u73af\u5883\u6a21\u62df
p5563
aV\u73af\u5e02
p5564
aV\u73af\u73af\u76f8\u6263
p5565
aV\u73af\u7ed5
p5566
aV\u73af\u8282
p5567
aV\u73af\u8d44\u59d4
p5568
aV\u73b0\u4eca
p5569
aV\u73b0\u4ee3
p5570
aV\u73b0\u4ee3\u5316
p5571
aV\u73b0\u4ee3\u79d1\u5b66
p5572
aV\u73b0\u4efb
p5573
aV\u73b0\u5728
p5574
aV\u73b0\u573a
p5575
aV\u73b0\u5b9e
p5576
aV\u73b0\u5b9e\u60c5\u51b5
p5577
aV\u73b0\u5c31\u804c
p5578
aV\u73b0\u5df2
p5579
aV\u73b0\u6709
p5580
aV\u73b0\u72b6
p5581
aV\u73b0\u72b6\u53ca
p5582
aV\u73b0\u8c61
p5583
aV\u73b0\u8d27
p5584
aV\u73bb\u6069
p5585
aV\u73cd\u8d35
p5586
aV\u73de\u73c8
p5587
aV\u73fe\u4ee3
p5588
aV\u73fe\u72c0
p5589
aV\u7406\u4e8b
p5590
aV\u7406\u5b66
p5591
aV\u7406\u5b9e
p5592
aV\u7406\u5de5
p5593
aV\u7406\u5de5\u5927\u5b66
p5594
aV\u7406\u5de5\u79d1
p5595
aV\u7406\u5de5\u7c7b
p5596
aV\u7406\u5ff5
p5597
aV\u7406\u6027
p5598
aV\u7406\u60f3
p5599
aV\u7406\u7531
p5600
aV\u7406\u79d1
p5601
aV\u7406\u89e3
p5602
aV\u7406\u89e3\u529b
p5603
aV\u7406\u8ad6
p5604
aV\u7406\u8bba
p5605
aV\u7406\u8bba\u4f53\u7cfb
p5606
aV\u7406\u8bba\u5de5\u4f5c\u8005
p5607
aV\u7406\u8bba\u6027
p5608
aV\u7406\u8bba\u610f\u4e49
p5609
aV\u7406\u8bba\u7269\u7406
p5610
aV\u7406\u8bba\u7269\u7406\u5b66
p5611
aV\u7406\u8bba\u7269\u7406\u7814\u7a76\u6240
p5612
aV\u7406\u8bba\u77e5\u8bc6
p5613
aV\u7406\u8bba\u8bfe
p5614
aV\u745e\u58eb
p5615
aV\u7470\u4e3d
p5616
aV\u74f6\u9888
p5617
aV\u751a\u81f3
p5618
aV\u751f\u4e8e
p5619
aV\u751f\u4ea7
p5620
aV\u751f\u4ea7\u6210\u672c
p5621
aV\u751f\u4ea7\u65b9\u5f0f
p5622
aV\u751f\u52a8
p5623
aV\u751f\u547d
p5624
aV\u751f\u547d\u529b
p5625
aV\u751f\u547d\u5468\u671f
p5626
aV\u751f\u547d\u79d1\u5b66
p5627
aV\u751f\u6001
p5628
aV\u751f\u6210
p5629
aV\u751f\u6210\u5668
p5630
aV\u751f\u6d3b
p5631
aV\u751f\u6daf
p5632
aV\u751f\u706d
p5633
aV\u751f\u7269
p5634
aV\u751f\u7269\u4f53
p5635
aV\u751f\u7269\u533b\u5b66
p5636
aV\u751f\u7269\u5b66
p5637
aV\u751f\u7269\u7269\u7406
p5638
aV\u751f\u7269\u8fdb\u5316
p5639
aV\u751f\u7406
p5640
aV\u751f\u7406\u5b66
p5641
aV\u751f\u7f16
p5642
aV\u751f\u957f
p5643
aV\u7528\u4e66
p5644
aV\u7528\u4e8e
p5645
aV\u7528\u4ee5
p5646
aV\u7528\u4f5c
p5647
aV\u7528\u4f8b
p5648
aV\u7528\u5230
p5649
aV\u7528\u54c1
p5650
aV\u7528\u6237
p5651
aV\u7528\u6237\u7ec4
p5652
aV\u7528\u6765
p5653
aV\u7528\u8bcd
p5654
aV\u7528\u8bed
p5655
aV\u7530\u5a67
p5656
aV\u7530\u7eb3\u897f
p5657
aV\u7531\u4e8e
p5658
aV\u7531\u6b64
p5659
aV\u7531\u6d45\u5165\u6df1
p5660
aV\u7532\u9aa8\u6587
p5661
aV\u7533\u519c
p5662
aV\u7533\u7ef4
p5663
aV\u7533\u8bf7
p5664
aV\u7533\u8bf7\u8005
p5665
aV\u7535\u4fe1
p5666
aV\u7535\u529b
p5667
aV\u7535\u529b\u7cfb\u7edf
p5668
aV\u7535\u529b\u7f51
p5669
aV\u7535\u52a8
p5670
aV\u7535\u5668
p5671
aV\u7535\u5b50
p5672
aV\u7535\u5b50\u4ea7\u54c1
p5673
aV\u7535\u5b50\u4fe1\u606f
p5674
aV\u7535\u5b50\u5143\u4ef6
p5675
aV\u7535\u5b50\u5316
p5676
aV\u7535\u5b50\u5546\u52a1
p5677
aV\u7535\u5b50\u5b66
p5678
aV\u7535\u5b50\u5bf9\u6297
p5679
aV\u7535\u5b50\u7535\u8def
p5680
aV\u7535\u5b50\u7cfb\u7edf
p5681
aV\u7535\u5b50\u7ebf\u8def
p5682
aV\u7535\u5b50\u8bbe\u5907
p5683
aV\u7535\u5b50\u8bbe\u8ba1
p5684
aV\u7535\u5b50\u90ae\u4ef6
p5685
aV\u7535\u5de5
p5686
aV\u7535\u5f71
p5687
aV\u7535\u6587
p5688
aV\u7535\u673a
p5689
aV\u7535\u673a\u5de5\u7a0b
p5690
aV\u7535\u6c14
p5691
aV\u7535\u6c14\u5de5\u7a0b
p5692
aV\u7535\u6c14\u63a7\u5236
p5693
aV\u7535\u6c14\u7cfb\u7edf
p5694
aV\u7535\u6d41
p5695
aV\u7535\u6e90
p5696
aV\u7535\u78c1\u573a
p5697
aV\u7535\u7c7b
p5698
aV\u7535\u7f51
p5699
aV\u7535\u8111
p5700
aV\u7535\u8111\u6e38\u620f
p5701
aV\u7535\u8111\u7cfb\u7edf
p5702
aV\u7535\u89c6
p5703
aV\u7535\u89c6\u63a5\u6536
p5704
aV\u7535\u8bdd
p5705
aV\u7535\u8def
p5706
aV\u7535\u8def\u7cfb\u7edf
p5707
aV\u7535\u8def\u8bbe\u8ba1
p5708
aV\u7545\u9500
p5709
aV\u7545\u9500\u4e66
p5710
aV\u754c\u9650
p5711
aV\u754c\u9762
p5712
aV\u7559\u4e0b
p5713
aV\u7559\u5728
p5714
aV\u7559\u5b66
p5715
aV\u7559\u5b66\u4eba\u5458
p5716
aV\u7559\u6821
p5717
aV\u7565\u52a0\u4fee\u6539
p5718
aV\u7565\u53bb
p5719
aV\u7576\u524d
p5720
aV\u7591\u95ee
p5721
aV\u7591\u96be
p5722
aV\u7597\u517b
p5723
aV\u75be\u75c5
p5724
aV\u75c5\u6bd2
p5725
aV\u75c5\u7406
p5726
aV\u75c5\u7406\u5b66
p5727
aV\u75d5\u8ff9
p5728
aV\u764c\u75c7
p5729
aV\u767b\u5c71
p5730
aV\u767b\u5f55
p5731
aV\u767d\u4e0a
p5732
aV\u767d\u677f
p5733
aV\u767d\u7bb1
p5734
aV\u767e\u4e2a
p5735
aV\u767e\u5e74
p5736
aV\u767e\u5ea6
p5737
aV\u767e\u79cd
p5738
aV\u7684\u6b21
p5739
aV\u7684\u7684
p5740
aV\u7687\u540e
p5741
aV\u7687\u5bb6
p5742
aV\u76ae\u8482
p5743
aV\u76d1\u63a7
p5744
aV\u76d1\u7406
p5745
aV\u76d1\u7763
p5746
aV\u76ee\u4e0d\u6687\u63a5
p5747
aV\u76ee\u524d
p5748
aV\u76ee\u5f55
p5749
aV\u76ee\u6807
p5750
aV\u76ee\u7684
p5751
aV\u76ee\u7684\u5730
p5752
aV\u76ee\u7684\u6027
p5753
aV\u76ee\u7684\u8bba
p5754
aV\u76ee\u9304
p5755
aV\u76f2\u6587
p5756
aV\u76f2\u76ee
p5757
aV\u76f2\u76ee\u6027
p5758
aV\u76f4\u63a5
p5759
aV\u76f4\u6d41
p5760
aV\u76f4\u89c2
p5761
aV\u76f8\u4e92
p5762
aV\u76f8\u4e92\u4f5c\u7528
p5763
aV\u76f8\u4f3c
p5764
aV\u76f8\u4f3c\u6027
p5765
aV\u76f8\u4f4d
p5766
aV\u76f8\u4fe1
p5767
aV\u76f8\u5173
p5768
aV\u76f8\u5173\u6027
p5769
aV\u76f8\u53d8
p5770
aV\u76f8\u540c
p5771
aV\u76f8\u5bf9
p5772
aV\u76f8\u5bf9\u6027
p5773
aV\u76f8\u5bf9\u8bba
p5774
aV\u76f8\u5e72
p5775
aV\u76f8\u5e94
p5776
aV\u76f8\u5f53
p5777
aV\u76f8\u5f97\u76ca\u5f70
p5778
aV\u76f8\u6bd4
p5779
aV\u76f8\u7a7a\u95f4
p5780
aV\u76f8\u7ed3\u5408
p5781
aV\u76f8\u8f85\u76f8\u6210
p5782
aV\u76f8\u8fd1
p5783
aV\u7701\u7ea7
p5784
aV\u7701\u90e8\u7ea7
p5785
aV\u770b\u4e0d\u89c1
p5786
aV\u770b\u4f3c
p5787
aV\u770b\u4f5c
p5788
aV\u770b\u505a
p5789
aV\u770b\u5230
p5790
aV\u770b\u5f85
p5791
aV\u770b\u5f97\u89c1
p5792
aV\u770b\u6765
p5793
aV\u770b\u8d77\u6765
p5794
aV\u770b\u8fc7
p5795
aV\u771f\u503c
p5796
aV\u771f\u5b9e
p5797
aV\u771f\u5b9e\u4e16\u754c
p5798
aV\u771f\u5b9e\u611f
p5799
aV\u771f\u5b9e\u611f\u56fe\u5f62
p5800
aV\u771f\u6b63
p5801
aV\u771f\u7406
p5802
aV\u771f\u9898
p5803
aV\u773c\u4e2d
p5804
aV\u773c\u5149
p5805
aV\u773c\u52a8
p5806
aV\u773c\u775b
p5807
aV\u7740\u773c
p5808
aV\u7740\u773c\u4e8e
p5809
aV\u7740\u8272
p5810
aV\u7740\u8272\u5668
p5811
aV\u7740\u8ff7
p5812
aV\u7740\u91cd
p5813
aV\u7740\u91cd\u4e8e
p5814
aV\u777f\u548c
p5815
aV\u7784\u51c6
p5816
aV\u77a0\u76ee\u7ed3\u820c
p5817
aV\u77e2\u91cf
p5818
aV\u77e5\u540d
p5819
aV\u77e5\u60c5
p5820
aV\u77e5\u6653
p5821
aV\u77e5\u89ba
p5822
aV\u77e5\u89c9
p5823
aV\u77e5\u8bc6
p5824
aV\u77e5\u8bc6\u5206\u5b50
p5825
aV\u77e5\u8bc6\u5e93
p5826
aV\u77e5\u8bc6\u6027
p5827
aV\u77e5\u8bc6\u70b9
p5828
aV\u77e5\u8bc6\u7ed3\u6784
p5829
aV\u77e5\u8bc6\u9762
p5830
aV\u77e5\u9053
p5831
aV\u77e9\u9635
p5832
aV\u77ed\u4fe1
p5833
aV\u77ed\u65f6
p5834
aV\u77ed\u65f6\u95f4
p5835
aV\u77ed\u671f
p5836
aV\u77ed\u8bed
p5837
aV\u77ed\u8def
p5838
aV\u77f3\u6cb9
p5839
aV\u77f3\u6cb9\u5927\u5b66
p5840
aV\u7801\u7247
p5841
aV\u7814\u5236
p5842
aV\u7814\u53d1
p5843
aV\u7814\u6280
p5844
aV\u7814\u7a76
p5845
aV\u7814\u7a76\u4f1a
p5846
aV\u7814\u7a76\u5458
p5847
aV\u7814\u7a76\u5ba4
p5848
aV\u7814\u7a76\u6210\u679c
p5849
aV\u7814\u7a76\u6240
p5850
aV\u7814\u7a76\u73ed
p5851
aV\u7814\u7a76\u751f
p5852
aV\u7814\u7a76\u751f\u73ed
p5853
aV\u7814\u7a76\u751f\u9662
p5854
aV\u7814\u7a76\u8005
p5855
aV\u7814\u7a76\u8fdb\u5c55
p5856
aV\u7814\u7a76\u9662
p5857
aV\u7814\u7a76\u9662\u6240
p5858
aV\u7814\u8ba8\u4f1a
p5859
aV\u7814\u8bfb
p5860
aV\u7834\u574f
p5861
aV\u7834\u788e
p5862
aV\u7845\u8c37
p5863
aV\u7855\u58eb
p5864
aV\u7855\u58eb\u5b66\u4f4d
p5865
aV\u7855\u58eb\u751f
p5866
aV\u7855\u679c
p5867
aV\u786c\u4ef6
p5868
aV\u786c\u4ef6\u5b89\u5168
p5869
aV\u786c\u76d8
p5870
aV\u786c\u76d8\u5206\u533a
p5871
aV\u786e\u4fdd
p5872
aV\u786e\u4fe1
p5873
aV\u786e\u5207
p5874
aV\u786e\u5207\u6027
p5875
aV\u786e\u5b9a
p5876
aV\u786e\u5b9a\u6027
p5877
aV\u786e\u5b9e
p5878
aV\u786e\u7acb
p5879
aV\u786e\u8bc1
p5880
aV\u788e\u7247
p5881
aV\u78c1\u4ecb\u8d28
p5882
aV\u78c1\u5e26\u9a71\u52a8\u5668
p5883
aV\u78c1\u76d8
p5884
aV\u78c1\u76d8\u9635\u5217
p5885
aV\u78c1\u76d8\u9a71\u52a8\u5668
p5886
aV\u78c1\u8bb0\u5f55
p5887
aV\u78e8\u635f
p5888
aV\u793a\u4f8b
p5889
aV\u793a\u610f\u56fe
p5890
aV\u793c\u54c1
p5891
aV\u793e\u4ea4
p5892
aV\u793e\u4f1a
p5893
aV\u793e\u4f1a\u4e3b\u4e49
p5894
aV\u793e\u4f1a\u4fdd\u969c\u90e8
p5895
aV\u793e\u4f1a\u5173\u7cfb
p5896
aV\u793e\u4f1a\u5b66
p5897
aV\u793e\u4f1a\u5b66\u5bb6
p5898
aV\u793e\u4f1a\u5de5\u4f5c
p5899
aV\u793e\u4f1a\u5fc3\u7406\u5b66
p5900
aV\u793e\u4f1a\u79d1\u5b66
p5901
aV\u793e\u4f1a\u79d1\u5b66\u5bb6
p5902
aV\u793e\u4f1a\u79d1\u5b66\u754c
p5903
aV\u793e\u4f1a\u79e9\u5e8f
p5904
aV\u793e\u4f1a\u89c4\u8303
p5905
aV\u793e\u533a
p5906
aV\u793e\u56e2
p5907
aV\u793e\u5de5
p5908
aV\u793e\u6703\u5b78
p5909
aV\u795e\u5947
p5910
aV\u795e\u79d8
p5911
aV\u795e\u79d8\u83ab\u6d4b
p5912
aV\u795e\u7ae5
p5913
aV\u795e\u7ecf
p5914
aV\u795e\u7ecf\u5143
p5915
aV\u795e\u7ecf\u5143\u7f51\u7edc
p5916
aV\u795e\u7ecf\u75c7
p5917
aV\u795e\u7ecf\u7cfb\u7edf
p5918
aV\u795e\u7ecf\u7f51\u7edc
p5919
aV\u795e\u8bdd
p5920
aV\u7981\u5fcc
p5921
aV\u798f\u514b
p5922
aV\u798f\u5c14
p5923
aV\u798f\u5dde
p5924
aV\u798f\u5e03\u65af
p5925
aV\u798f\u7279\u57fa\u91d1\u4f1a
p5926
aV\u79bb\u5a5a
p5927
aV\u79bb\u6563
p5928
aV\u79bb\u6563\u6570\u5b66
p5929
aV\u79bb\u6563\u7cfb\u7edf
p5930
aV\u79be\u8d39
p5931
aV\u79cb\u5b63
p5932
aV\u79cd\u5efa\u6a2a
p5933
aV\u79cd\u7528\u7edf
p5934
aV\u79cd\u79cd
p5935
aV\u79cd\u7c7b
p5936
aV\u79cd\u7fa4
p5937
aV\u79d1\u5229
p5938
aV\u79d1\u5a01\u7279
p5939
aV\u79d1\u5b66
p5940
aV\u79d1\u5b66\u51fa\u7248\u793e
p5941
aV\u79d1\u5b66\u5206\u6790
p5942
aV\u79d1\u5b66\u53f2
p5943
aV\u79d1\u5b66\u5bb6
p5944
aV\u79d1\u5b66\u6027
p5945
aV\u79d1\u5b66\u6280\u672f
p5946
aV\u79d1\u5b66\u7814\u7a76
p5947
aV\u79d1\u5b66\u7cfb
p5948
aV\u79d1\u5b66\u7d20\u517b
p5949
aV\u79d1\u5b66\u8ba1\u7b97
p5950
aV\u79d1\u5b66\u9662
p5951
aV\u79d1\u5b66\u9986
p5952
aV\u79d1\u5c42
p5953
aV\u79d1\u5e7b
p5954
aV\u79d1\u5e7b\u5c0f\u8bf4
p5955
aV\u79d1\u6280
p5956
aV\u79d1\u6280\u4eba\u5458
p5957
aV\u79d1\u6280\u524d\u6cbf
p5958
aV\u79d1\u6280\u6210\u679c
p5959
aV\u79d1\u6280\u90e8
p5960
aV\u79d1\u6280\u9886\u57df
p5961
aV\u79d1\u666e
p5962
aV\u79d1\u666e\u8bfb\u7269
p5963
aV\u79d1\u6e29
p5964
aV\u79d1\u7279
p5965
aV\u79d1\u7814
p5966
aV\u79d1\u7814\u4eba\u5458
p5967
aV\u79d1\u7814\u5de5\u4f5c
p5968
aV\u79d1\u7814\u6210\u679c
p5969
aV\u79d1\u7814\u8bfe\u9898
p5970
aV\u79d1\u7814\u9662\u6240
p5971
aV\u79d1\u7814\u9879\u76ee
p5972
aV\u79d8\u4e66\u957f
p5973
aV\u79d8\u5bc6
p5974
aV\u79e9\u5e8f
p5975
aV\u79e9\u6570
p5976
aV\u79ef\u5206
p5977
aV\u79ef\u5206\u6cd5
p5978
aV\u79ef\u6781
p5979
aV\u79ef\u6781\u4e3b\u52a8
p5980
aV\u79ef\u7d2f
p5981
aV\u79f0\u4e3a
p5982
aV\u79f0\u4f5c
p5983
aV\u79f0\u53f7
p5984
aV\u79fb\u52a8
p5985
aV\u79fb\u52a8\u673a\u5668\u4eba
p5986
aV\u79fb\u5cf0
p5987
aV\u79fb\u690d
p5988
aV\u79fb\u6c11
p5989
aV\u7a00\u758f
p5990
aV\u7a0b\u5e8f
p5991
aV\u7a0b\u5e8f\u5458
p5992
aV\u7a0b\u5e8f\u5904\u7406
p5993
aV\u7a0b\u5e8f\u5b9e\u73b0
p5994
aV\u7a0b\u5e8f\u5e93
p5995
aV\u7a0b\u5e8f\u5f00\u53d1
p5996
aV\u7a0b\u5e8f\u63a5\u53e3
p5997
aV\u7a0b\u5e8f\u7ed3\u6784
p5998
aV\u7a0b\u5e8f\u8bbe\u8ba1
p5999
aV\u7a0b\u5e8f\u8bed\u8a00
p6000
aV\u7a0b\u5e8f\u8c03\u8bd5
p6001
aV\u7a0b\u5e8f\u903b\u8f91
p6002
aV\u7a0b\u5e8f\u9a8c\u8bc1
p6003
aV\u7a0b\u5ea6
p6004
aV\u7a0d\u52a0
p6005
aV\u7a33\u5065
p6006
aV\u7a33\u5065\u6027
p6007
aV\u7a33\u5b9a
p6008
aV\u7a33\u5b9a\u6027
p6009
aV\u7a33\u6001
p6010
aV\u7a7a\u4e2d
p6011
aV\u7a7a\u519b
p6012
aV\u7a7a\u60f3
p6013
aV\u7a7a\u6c14
p6014
aV\u7a7a\u767d
p6015
aV\u7a7a\u8c03
p6016
aV\u7a7a\u8c08
p6017
aV\u7a7a\u95f4
p6018
aV\u7a7f\u63d2
p6019
aV\u7a7f\u900f
p6020
aV\u7a81\u51fa
p6021
aV\u7a81\u51fa\u91cd\u70b9
p6022
aV\u7a81\u53d8
p6023
aV\u7a81\u53d8\u8bba
p6024
aV\u7a81\u7834
p6025
aV\u7a98\u5883
p6026
aV\u7acb\u4f53
p6027
aV\u7acb\u515a\u4e3a\u516c
p6028
aV\u7acb\u5373
p6029
aV\u7acb\u573a
p6030
aV\u7acb\u610f
p6031
aV\u7acb\u8db3\u4e8e
p6032
aV\u7acb\u9879
p6033
aV\u7ade\u4e89
p6034
aV\u7ade\u8d5b
p6035
aV\u7ae0\u4e2d
p6036
aV\u7ae0\u4e3a
p6037
aV\u7ae0\u540e
p6038
aV\u7ae0\u5c06
p6039
aV\u7ae0\u6587\u5d69
p6040
aV\u7ae0\u7528
p6041
aV\u7ae0\u7ae0
p6042
aV\u7ae0\u7b2c
p6043
aV\u7ae0\u8282
p6044
aV\u7ae5\u4e66
p6045
aV\u7aed\u529b
p6046
aV\u7aef\u7684
p6047
aV\u7b14\u5934
p6048
aV\u7b14\u8005
p6049
aV\u7b14\u89e6
p6050
aV\u7b14\u8bb0
p6051
aV\u7b26\u53f7
p6052
aV\u7b26\u53f7\u4e32
p6053
aV\u7b26\u53f7\u5316
p6054
aV\u7b26\u53f7\u8ba1\u7b97
p6055
aV\u7b26\u5408
p6056
aV\u7b26\u865f\u5b78
p6057
aV\u7b2c\u4e00
p6058
aV\u7b2c\u4e00\u4e2a
p6059
aV\u7b2c\u4e00\u53f0
p6060
aV\u7b2c\u4e00\u5bb6
p6061
aV\u7b2c\u4e00\u5c42
p6062
aV\u7b2c\u4e00\u5c4a
p6063
aV\u7b2c\u4e00\u624b
p6064
aV\u7b2c\u4e00\u672c
p6065
aV\u7b2c\u4e00\u6b21
p6066
aV\u7b2c\u4e00\u6b21\u4e16\u754c\u5927\u6218
p6067
aV\u7b2c\u4e00\u7248
p6068
aV\u7b2c\u4e00\u7ae0
p6069
aV\u7b2c\u4e00\u7bc7
p6070
aV\u7b2c\u4e00\u7ebf
p6071
aV\u7b2c\u4e00\u8282
p6072
aV\u7b2c\u4e00\u90e8
p6073
aV\u7b2c\u4e03
p6074
aV\u7b2c\u4e03\u5c4a
p6075
aV\u7b2c\u4e03\u7248
p6076
aV\u7b2c\u4e03\u7ae0
p6077
aV\u7b2c\u4e09
p6078
aV\u7b2c\u4e09\u4e16\u754c\u79d1\u5b66\u9662
p6079
aV\u7b2c\u4e09\u4ee3
p6080
aV\u7b2c\u4e09\u5c42
p6081
aV\u7b2c\u4e09\u6b21
p6082
aV\u7b2c\u4e09\u7248
p6083
aV\u7b2c\u4e09\u7ae0
p6084
aV\u7b2c\u4e09\u7bc7
p6085
aV\u7b2c\u4e09\u8282
p6086
aV\u7b2c\u4e5d\u5c4a
p6087
aV\u7b2c\u4e5d\u7ae0
p6088
aV\u7b2c\u4e8c
p6089
aV\u7b2c\u4e8c\u4e2a
p6090
aV\u7b2c\u4e8c\u4ee3
p6091
aV\u7b2c\u4e8c\u5341\u4e00\u7ae0
p6092
aV\u7b2c\u4e8c\u5341\u7ae0
p6093
aV\u7b2c\u4e8c\u5c42
p6094
aV\u7b2c\u4e8c\u5c4a
p6095
aV\u7b2c\u4e8c\u6b21
p6096
aV\u7b2c\u4e8c\u6b21\u4e16\u754c\u5927\u6218
p6097
aV\u7b2c\u4e8c\u7ae0
p6098
aV\u7b2c\u4e8c\u7bc7
p6099
aV\u7b2c\u4e8c\u8282
p6100
aV\u7b2c\u4e94
p6101
aV\u7b2c\u4e94\u7ae0
p6102
aV\u7b2c\u4e94\u7bc7
p6103
aV\u7b2c\u4e94\u8282
p6104
aV\u7b2c\u516b
p6105
aV\u7b2c\u516b\u7ae0
p6106
aV\u7b2c\u516d
p6107
aV\u7b2c\u516d\u5c4a
p6108
aV\u7b2c\u516d\u7ae0
p6109
aV\u7b2c\u516d\u8282
p6110
aV\u7b2c\u5341\u4e00\u7ae0
p6111
aV\u7b2c\u5341\u4e03
p6112
aV\u7b2c\u5341\u4e03\u7ae0
p6113
aV\u7b2c\u5341\u4e09\u7ae0
p6114
aV\u7b2c\u5341\u4e5d
p6115
aV\u7b2c\u5341\u4e5d\u7ae0
p6116
aV\u7b2c\u5341\u4e8c\u5c4a
p6117
aV\u7b2c\u5341\u4e8c\u7ae0
p6118
aV\u7b2c\u5341\u4e94\u7ae0
p6119
aV\u7b2c\u5341\u516b\u7ae0
p6120
aV\u7b2c\u5341\u516d\u7ae0
p6121
aV\u7b2c\u5341\u56db
p6122
aV\u7b2c\u5341\u56db\u7ae0
p6123
aV\u7b2c\u5341\u7ae0
p6124
aV\u7b2c\u56db
p6125
aV\u7b2c\u56db\u5c4a
p6126
aV\u7b2c\u56db\u7248
p6127
aV\u7b2c\u56db\u7ae0
p6128
aV\u7b2c\u56db\u7bc7
p6129
aV\u7b2c\u56db\u8282
p6130
aV\u7b2c\u56db\u90e8
p6131
aV\u7b49\u4e3a
p6132
aV\u7b49\u4ef7
p6133
aV\u7b49\u503c
p6134
aV\u7b49\u5956\u9879
p6135
aV\u7b49\u79bb\u5b50\u4f53
p6136
aV\u7b49\u7b49
p6137
aV\u7b49\u8457
p6138
aV\u7b49\u8bd1
p6139
aV\u7b54\u6848
p6140
aV\u7b54\u7591
p6141
aV\u7b56\u7565
p6142
aV\u7b5b\u9009
p6143
aV\u7b79\u59d4\u4f1a
p6144
aV\u7b7e\u540d
p6145
aV\u7b80\u4ecb
p6146
aV\u7b80\u4f53\u5b57
p6147
aV\u7b80\u5165
p6148
aV\u7b80\u5316
p6149
aV\u7b80\u5355
p6150
aV\u7b80\u5355\u5316
p6151
aV\u7b80\u53f2
p6152
aV\u7b80\u5e76
p6153
aV\u7b80\u660e
p6154
aV\u7b80\u6613
p6155
aV\u7b80\u6d01
p6156
aV\u7b80\u6d01\u660e\u4e86
p6157
aV\u7b80\u77ed
p6158
aV\u7b80\u79f0
p6159
aV\u7b80\u8981
p6160
aV\u7b80\u8ff0
p6161
aV\u7b97\u4e0d\u4e0a
p6162
aV\u7b97\u4f8b
p6163
aV\u7b97\u672f
p6164
aV\u7b97\u673a
p6165
aV\u7b97\u6cd5
p6166
aV\u7b97\u7b26
p6167
aV\u7ba1\u7406
p6168
aV\u7ba1\u7406\u4eba\u5458
p6169
aV\u7ba1\u7406\u4fe1\u606f\u7cfb\u7edf
p6170
aV\u7ba1\u7406\u5236\u5ea6
p6171
aV\u7ba1\u7406\u5668
p6172
aV\u7ba1\u7406\u578b
p6173
aV\u7ba1\u7406\u5b66
p6174
aV\u7ba1\u7406\u5de5\u4f5c
p6175
aV\u7ba1\u7406\u6761\u4f8b
p6176
aV\u7ba1\u7406\u79d1\u5b66
p6177
aV\u7ba1\u7406\u7cfb\u7edf
p6178
aV\u7ba1\u7406\u8005
p6179
aV\u7ba1\u7406\u8f6f\u4ef6
p6180
aV\u7ba1\u9053
p6181
aV\u7ba9\u6cd5
p6182
aV\u7bc7\u5e45
p6183
aV\u7bc7\u6587\u7ae0
p6184
aV\u7bc7\u7ae0
p6185
aV\u7be1\u6539
p6186
aV\u7c7b\u4e66\u7c4d
p6187
aV\u7c7b\u4f3c
p6188
aV\u7c7b\u522b
p6189
aV\u7c7b\u56fe\u4e66
p6190
aV\u7c7b\u578b
p6191
aV\u7c7b\u6bd4
p6192
aV\u7c7b\u7b97\u5b50
p6193
aV\u7c92\u5316
p6194
aV\u7c92\u5b50
p6195
aV\u7c97\u5dee
p6196
aV\u7c97\u7565
p6197
aV\u7c97\u7cd9
p6198
aV\u7c97\u7cd9\u96c6
p6199
aV\u7c97\u96c6
p6200
aV\u7cae\u98df
p6201
aV\u7cbe\u51c6
p6202
aV\u7cbe\u534e
p6203
aV\u7cbe\u54c1
p6204
aV\u7cbe\u54c1\u8bfe
p6205
aV\u7cbe\u54c1\u8bfe\u7a0b
p6206
aV\u7cbe\u5bc6
p6207
aV\u7cbe\u5f69\u5185\u5bb9
p6208
aV\u7cbe\u5fc3
p6209
aV\u7cbe\u70bc
p6210
aV\u7cbe\u76ca
p6211
aV\u7cbe\u786e
p6212
aV\u7cbe\u795e
p6213
aV\u7cbe\u795e\u5206\u6790
p6214
aV\u7cbe\u795e\u75c5\u5b66
p6215
aV\u7cbe\u7b80
p6216
aV\u7cbe\u7cb9
p6217
aV\u7cbe\u7ec3
p6218
aV\u7cbe\u7ec6
p6219
aV\u7cbe\u7f8e
p6220
aV\u7cbe\u88c5
p6221
aV\u7cbe\u8981
p6222
aV\u7cbe\u8bb2
p6223
aV\u7cbe\u8f9f
p6224
aV\u7cbe\u9009
p6225
aV\u7cbe\u901a
p6226
aV\u7cbe\u917f
p6227
aV\u7cfb\u4e3b\u4efb
p6228
aV\u7cfb\u5217
p6229
aV\u7cfb\u5217\u4e1b\u4e66
p6230
aV\u7cfb\u6570
p6231
aV\u7cfb\u7d71
p6232
aV\u7cfb\u7edf
p6233
aV\u7cfb\u7edf\u5206\u6790
p6234
aV\u7cfb\u7edf\u5206\u6790\u5458
p6235
aV\u7cfb\u7edf\u5316
p6236
aV\u7cfb\u7edf\u53ef\u9760\u6027
p6237
aV\u7cfb\u7edf\u5730
p6238
aV\u7cfb\u7edf\u5b89\u5168
p6239
aV\u7cfb\u7edf\u5de5\u7a0b
p6240
aV\u7cfb\u7edf\u6027
p6241
aV\u7cfb\u7edf\u603b\u7ebf
p6242
aV\u7cfb\u7edf\u63a7\u5236
p6243
aV\u7cfb\u7edf\u6545\u969c
p6244
aV\u7cfb\u7edf\u6587\u4ef6
p6245
aV\u7cfb\u7edf\u6a21\u62df
p6246
aV\u7cfb\u7edf\u7ba1\u7406
p6247
aV\u7cfb\u7edf\u7ba1\u7406\u5458
p6248
aV\u7cfb\u7edf\u7ed3\u6784
p6249
aV\u7cfb\u7edf\u7ef4\u62a4
p6250
aV\u7cfb\u7edf\u8bba
p6251
aV\u7cfb\u7edf\u8bef\u5dee
p6252
aV\u7cfb\u7edf\u8c03\u5ea6
p6253
aV\u7cfb\u7edf\u8f6f\u4ef6
p6254
aV\u7cfb\u7edf\u9610\u8ff0
p6255
aV\u7cfb\u7edf\u96c6\u6210
p6256
aV\u7cfb\u91cc
p6257
aV\u7d20\u517b
p6258
aV\u7d20\u6750
p6259
aV\u7d20\u8d28
p6260
aV\u7d22\u5c14\u7ef4
p6261
aV\u7d22\u5c3c
p6262
aV\u7d22\u5f15
p6263
aV\u7d22\u7f57\u91d1
p6264
aV\u7d27\u5bc6
p6265
aV\u7d27\u5bc6\u7ed3\u5408
p6266
aV\u7d27\u5bc6\u8054\u7cfb
p6267
aV\u7d27\u5f20\u5c40\u52bf
p6268
aV\u7d27\u6263
p6269
aV\u7d27\u7d27\u56f4\u7ed5
p6270
aV\u7d27\u81f4
p6271
aV\u7d2b\u6c5f
p6272
aV\u7d50\u69cb
p6273
aV\u7d9c\u8ff0
p6274
aV\u7e41\u4f53\u5b57
p6275
aV\u7e41\u590d
p6276
aV\u7e41\u6742
p6277
aV\u7ea0\u7eb7
p6278
aV\u7ea0\u9519
p6279
aV\u7ea2\u5916
p6280
aV\u7ea2\u6749
p6281
aV\u7ea6\u675f
p6282
aV\u7ea6\u7b80
p6283
aV\u7ea6\u7ff0
p6284
aV\u7ea6\u8bf7
p6285
aV\u7eaa\u5b9e
p6286
aV\u7eb3\u5165
p6287
aV\u7eb5\u5411
p6288
aV\u7eb5\u6a2a\u4ea4\u9519
p6289
aV\u7eb7\u7e41
p6290
aV\u7eb7\u7eb7
p6291
aV\u7eb8\u5934
p6292
aV\u7eb8\u7248
p6293
aV\u7eb9\u7406
p6294
aV\u7ebd\u7ea6
p6295
aV\u7ebd\u7ea6\u65f6\u62a5
p6296
aV\u7ebf\u56fe
p6297
aV\u7ebf\u5f62
p6298
aV\u7ebf\u6027
p6299
aV\u7ebf\u6027\u4ee3\u6570
p6300
aV\u7ebf\u6027\u65b9\u7a0b\u7ec4
p6301
aV\u7ebf\u6027\u7cfb\u7edf
p6302
aV\u7ebf\u6027\u7f51\u7edc
p6303
aV\u7ebf\u6027\u8868
p6304
aV\u7ebf\u6027\u89c4\u5212
p6305
aV\u7ebf\u6750
p6306
aV\u7ebf\u6761
p6307
aV\u7ebf\u7a0b
p6308
aV\u7ebf\u7d22
p6309
aV\u7ebf\u8def
p6310
aV\u7ec3\u4e60
p6311
aV\u7ec3\u4e60\u9898
p6312
aV\u7ec4\u5408
p6313
aV\u7ec4\u5757
p6314
aV\u7ec4\u5efa
p6315
aV\u7ec4\u6210
p6316
aV\u7ec4\u6210\u90e8\u5206
p6317
aV\u7ec4\u7ec7
p6318
aV\u7ec4\u7ec7\u7cfb\u7edf
p6319
aV\u7ec4\u88c5
p6320
aV\u7ec4\u957f
p6321
aV\u7ec6\u5c0f
p6322
aV\u7ec6\u80de
p6323
aV\u7ec6\u80de\u8d28
p6324
aV\u7ec6\u81f4
p6325
aV\u7ec6\u8282
p6326
aV\u7ec8\u4e8e
p6327
aV\u7ec8\u5c06
p6328
aV\u7ec8\u6210
p6329
aV\u7ec8\u6781
p6330
aV\u7ec8\u751f
p6331
aV\u7ec8\u7a76
p6332
aV\u7ec8\u7aef
p6333
aV\u7ec8\u8eab
p6334
aV\u7ecf\u5178
p6335
aV\u7ecf\u5178\u4e4b\u4f5c
p6336
aV\u7ecf\u5178\u6027
p6337
aV\u7ecf\u5178\u8457\u4f5c
p6338
aV\u7ecf\u5178\u8bed\u5f55
p6339
aV\u7ecf\u5e38
p6340
aV\u7ecf\u6d4e
p6341
aV\u7ecf\u6d4e\u4f53\u5236
p6342
aV\u7ecf\u6d4e\u5b66
p6343
aV\u7ecf\u6d4e\u5b66\u5bb6
p6344
aV\u7ecf\u6d4e\u5b66\u754c
p6345
aV\u7ecf\u6d4e\u6548\u76ca
p6346
aV\u7ecf\u7406
p6347
aV\u7ecf\u7ba1
p6348
aV\u7ecf\u7ba1\u7c7b
p6349
aV\u7ecf\u7eac
p6350
aV\u7ecf\u7edc
p6351
aV\u7ecf\u8425
p6352
aV\u7ecf\u8fc7
p6353
aV\u7ecf\u9a8c
p6354
aV\u7ecf\u9a8c\u4e30\u5bcc
p6355
aV\u7ecf\u9a8c\u4e3b\u4e49
p6356
aV\u7ecf\u9a8c\u6559\u8bad
p6357
aV\u7ed3\u5408
p6358
aV\u7ed3\u5408\u5b9e\u9645
p6359
aV\u7ed3\u5c40
p6360
aV\u7ed3\u6676
p6361
aV\u7ed3\u675f
p6362
aV\u7ed3\u675f\u8bed
p6363
aV\u7ed3\u6784
p6364
aV\u7ed3\u6784\u5316
p6365
aV\u7ed3\u6784\u5316\u5206\u6790
p6366
aV\u7ed3\u6784\u5316\u7a0b\u5e8f
p6367
aV\u7ed3\u6784\u5408\u7406
p6368
aV\u7ed3\u6784\u56fe
p6369
aV\u7ed3\u6784\u7279\u5f81
p6370
aV\u7ed3\u6784\u8bbe\u8ba1
p6371
aV\u7ed3\u679c
p6372
aV\u7ed3\u8bba
p6373
aV\u7ed8\u5236
p6374
aV\u7ed8\u56fe\u4eea
p6375
aV\u7ed9\u4e88
p6376
aV\u7ed9\u51fa
p6377
aV\u7ed9\u5b9a
p6378
aV\u7edd\u4e0d
p6379
aV\u7edd\u4f73
p6380
aV\u7edd\u5927\u90e8\u5206
p6381
aV\u7edd\u5bf9
p6382
aV\u7edd\u6280
p6383
aV\u7edd\u62db
p6384
aV\u7edd\u70ed
p6385
aV\u7edf\u4e00
p6386
aV\u7edf\u4e00\u6027
p6387
aV\u7edf\u6cbb
p6388
aV\u7edf\u79f0
p6389
aV\u7edf\u7a3f
p6390
aV\u7edf\u8ba1
p6391
aV\u7edf\u8ba1\u4eba\u5458
p6392
aV\u7edf\u8ba1\u5047\u8bbe
p6393
aV\u7edf\u8ba1\u5206\u6790
p6394
aV\u7edf\u8ba1\u529b\u5b66
p6395
aV\u7edf\u8ba1\u5b66
p6396
aV\u7edf\u8ba1\u5b66\u5bb6
p6397
aV\u7ee7\u627f
p6398
aV\u7ee7\u7535\u4fdd\u62a4
p6399
aV\u7ee7\u7eed
p6400
aV\u7eea\u8bba
p6401
aV\u7ef4\u4fee
p6402
aV\u7ef4\u5947
p6403
aV\u7ef4\u5c14
p6404
aV\u7ef4\u62a4
p6405
aV\u7ef4\u6301
p6406
aV\u7ef4\u6570
p6407
aV\u7ef4\u7a7a\u95f4
p6408
aV\u7ef4\u7eb3
p6409
aV\u7ef4\u7eb3\u6ee4\u6ce2
p6410
aV\u7efc\u5408
p6411
aV\u7efc\u5408\u5229\u7528
p6412
aV\u7efc\u5408\u6027
p6413
aV\u7efc\u8ff0
p6414
aV\u7eff\u5361
p6415
aV\u7f13\u5b58
p6416
aV\u7f16\u4e2d
p6417
aV\u7f16\u5165
p6418
aV\u7f16\u5199
p6419
aV\u7f16\u5199\u51fa
p6420
aV\u7f16\u5199\u7a0b\u5e8f
p6421
aV\u7f16\u5230
p6422
aV\u7f16\u5236
p6423
aV\u7f16\u53f7
p6424
aV\u7f16\u59d4
p6425
aV\u7f16\u5bfc
p6426
aV\u7f16\u6240
p6427
aV\u7f16\u6392
p6428
aV\u7f16\u64b0
p6429
aV\u7f16\u7801
p6430
aV\u7f16\u7801\u65b9\u6cd5
p6431
aV\u7f16\u7a0b
p6432
aV\u7f16\u7a0b\u4eba\u5458
p6433
aV\u7f16\u7a0b\u5668
p6434
aV\u7f16\u7a0b\u6280\u672f
p6435
aV\u7f16\u7a0b\u8bed\u8a00
p6436
aV\u7f16\u8457
p6437
aV\u7f16\u8457\u8005
p6438
aV\u7f16\u8bd1
p6439
aV\u7f16\u8bd1\u5668
p6440
aV\u7f16\u8bd1\u7a0b\u5e8f
p6441
aV\u7f16\u8bd1\u7cfb\u7edf
p6442
aV\u7f16\u8f91
p6443
aV\u7f16\u8f91\u5668
p6444
aV\u7f29\u5199
p6445
aV\u7f29\u51cf
p6446
aV\u7f29\u77ed
p6447
aV\u7f2d\u4e71
p6448
aV\u7f3a\u4e00\u4e0d\u53ef
p6449
aV\u7f3a\u4e4f
p6450
aV\u7f3a\u5c11
p6451
aV\u7f3a\u9677
p6452
aV\u7f51\u4e0a
p6453
aV\u7f51\u4e0a\u4ea4\u6613
p6454
aV\u7f51\u5173
p6455
aV\u7f51\u5361
p6456
aV\u7f51\u5740
p6457
aV\u7f51\u6613
p6458
aV\u7f51\u683c
p6459
aV\u7f51\u6865
p6460
aV\u7f51\u72b6
p6461
aV\u7f51\u7ad9
p6462
aV\u7f51\u7ba1
p6463
aV\u7f51\u7edc
p6464
aV\u7f51\u7edc\u4f53\u7cfb\u7ed3\u6784
p6465
aV\u7f51\u7edc\u5206\u6790
p6466
aV\u7f51\u7edc\u5316
p6467
aV\u7f51\u7edc\u534f\u8bae
p6468
aV\u7f51\u7edc\u5b89\u5168
p6469
aV\u7f51\u7edc\u5c42
p6470
aV\u7f51\u7edc\u5de5\u7a0b
p6471
aV\u7f51\u7edc\u5e94\u7528
p6472
aV\u7f51\u7edc\u6e38\u620f
p6473
aV\u7f51\u7edc\u7248
p6474
aV\u7f51\u7edc\u7406\u8bba
p6475
aV\u7f51\u7edc\u7535\u8bdd
p6476
aV\u7f51\u7edc\u7ba1\u7406
p6477
aV\u7f51\u7edc\u7cfb\u7edf
p6478
aV\u7f51\u7edc\u7ed3\u6784
p6479
aV\u7f51\u7edc\u8bbe\u5907
p6480
aV\u7f51\u7edc\u8fde\u63a5
p6481
aV\u7f51\u7edc\u901a\u4fe1
p6482
aV\u7f51\u8d2d
p6483
aV\u7f51\u94f6
p6484
aV\u7f51\u9875
p6485
aV\u7f55\u89c1
p6486
aV\u7f57\u4f2f\u7279
p6487
aV\u7f57\u5217
p6488
aV\u7f57\u5c14\u65af
p6489
aV\u7f57\u6770
p6490
aV\u7f57\u6770\u65af
p6491
aV\u7f57\u6bc5
p6492
aV\u7f57\u897f
p6493
aV\u7f5a\u51fd\u6570\u6cd5
p6494
aV\u7f85\u862d
p6495
aV\u7f8e\u4e3d
p6496
aV\u7f8e\u56fd
p6497
aV\u7f8e\u56fd\u52a0\u5dde\u5927\u5b66
p6498
aV\u7f8e\u56fd\u5339\u5179\u5821\u5927\u5b66
p6499
aV\u7f8e\u56fd\u54e5\u4f26\u6bd4\u4e9a\u5927\u5b66
p6500
aV\u7f8e\u56fd\u58eb\u5175
p6501
aV\u7f8e\u56fd\u5bbe\u5915\u6cd5\u5c3c\u4e9a\u5927\u5b66
p6502
aV\u7f8e\u56fd\u666e\u6797\u65af\u987f\u5927\u5b66
p6503
aV\u7f8e\u56fd\u675c\u514b\u5927\u5b66
p6504
aV\u7f8e\u56fd\u7ebd\u7ea6
p6505
aV\u7f8e\u56fd\u9ebb\u7701\u7406\u5de5\u5b66\u9662
p6506
aV\u7f8e\u5999
p6507
aV\u7f8e\u5b66
p6508
aV\u7f8e\u5b78
p6509
aV\u7f8e\u7684
p6510
aV\u7f8e\u7c4d
p6511
aV\u7f8e\u98df
p6512
aV\u7fa4\u4ef6
p6513
aV\u7fa4\u4f53
p6514
aV\u7fa4\u4f53\u51b3\u7b56
p6515
aV\u7fa4\u4f53\u884c\u4e3a
p6516
aV\u7fa4\u8bba
p6517
aV\u7fa9\u7684
p6518
aV\u7fc5\u8180
p6519
aV\u7fd4\u5b9e
p6520
aV\u7fd4\u6cf3
p6521
aV\u7fd8\u9996\u4ee5\u76fc
p6522
aV\u7ffb\u65b0
p6523
aV\u7ffb\u8bd1
p6524
aV\u7ffb\u8bd1\u6210
p6525
aV\u8001\u5316
p6526
aV\u8001\u5c11\u7686\u5b9c
p6527
aV\u8001\u5e08
p6528
aV\u8001\u5e74\u4eba
p6529
aV\u8003\u4e66
p6530
aV\u8003\u5165
p6531
aV\u8003\u524d
p6532
aV\u8003\u53e4
p6533
aV\u8003\u53e4\u5b66
p6534
aV\u8003\u5bdf
p6535
aV\u8003\u6838
p6536
aV\u8003\u70b9
p6537
aV\u8003\u751f
p6538
aV\u8003\u7eb2
p6539
aV\u8003\u8651
p6540
aV\u8003\u8bd5
p6541
aV\u8003\u8bd5\u6307\u5357
p6542
aV\u800c\u4e14
p6543
aV\u800c\u540e
p6544
aV\u800c\u662f
p6545
aV\u800c\u8a00
p6546
aV\u800c\u975e
p6547
aV\u8015\u8018
p6548
aV\u8017\u6563
p6549
aV\u8026\u5408
p6550
aV\u8036\u9c81\u5927\u5b66
p6551
aV\u804a\u5929
p6552
aV\u804c\u4e1a
p6553
aV\u804c\u4e1a\u6280\u80fd
p6554
aV\u804c\u4e1a\u751f\u6daf
p6555
aV\u804c\u4f4d
p6556
aV\u804c\u52a1
p6557
aV\u8054\u5408
p6558
aV\u8054\u5408\u4f1a
p6559
aV\u8054\u5408\u56fd
p6560
aV\u8054\u60f3
p6561
aV\u8054\u673a
p6562
aV\u8054\u673a\u5904\u7406
p6563
aV\u8054\u7cfb
p6564
aV\u8054\u7cfb\u5b9e\u9645
p6565
aV\u8054\u7f51
p6566
aV\u8054\u8882
p6567
aV\u8054\u90a6
p6568
aV\u805a\u7c7b
p6569
aV\u805a\u7c7b\u5206\u6790
p6570
aV\u805a\u96c6
p6571
aV\u806a\u654f
p6572
aV\u8096\u5fe0\u6587
p6573
aV\u80a1\u7968
p6574
aV\u80a1\u7968\u5e02\u573a
p6575
aV\u80bf\u7624
p6576
aV\u80c6\u56fa\u9187
p6577
aV\u80cc\u540e
p6578
aV\u80cc\u666f
p6579
aV\u80da\u80ce\u5b66
p6580
aV\u80dc\u4efb
p6581
aV\u80dc\u5229
p6582
aV\u80e1\u5b89\u5b87
p6583
aV\u80e1\u80fd\u6b63
p6584
aV\u80fd\u529b
p6585
aV\u80fd\u591f
p6586
aV\u80fd\u6e90
p6587
aV\u80fd\u8bf4\u4f1a\u9053
p6588
aV\u80fd\u91cf
p6589
aV\u8106\u5f31
p6590
aV\u8106\u5f31\u6027
p6591
aV\u8106\u6027
p6592
aV\u8109\u51b2
p6593
aV\u8109\u51b2\u54cd\u5e94
p6594
aV\u8109\u7edc
p6595
aV\u8110\u70b9
p6596
aV\u8111\u6d77\u4e2d
p6597
aV\u8111\u90e8
p6598
aV\u811a\u672c
p6599
aV\u8131\u8282
p6600
aV\u8131\u9500
p6601
aV\u8131\u9896\u800c\u51fa
p6602
aV\u817e\u51fa
p6603
aV\u817e\u8baf
p6604
aV\u81ea\u4e0b\u800c\u4e0a
p6605
aV\u81ea\u4e3b
p6606
aV\u81ea\u4e3b\u6027
p6607
aV\u81ea\u521b
p6608
aV\u81ea\u52a8
p6609
aV\u81ea\u52a8\u5316
p6610
aV\u81ea\u52a8\u5316\u7cfb
p6611
aV\u81ea\u52a8\u5e94\u7b54
p6612
aV\u81ea\u52a8\u63a7\u5236
p6613
aV\u81ea\u52a8\u673a
p6614
aV\u81ea\u52a8\u88c5\u7f6e
p6615
aV\u81ea\u53d8\u91cf
p6616
aV\u81ea\u5b66
p6617
aV\u81ea\u5b9a\u4e49
p6618
aV\u81ea\u5bfb
p6619
aV\u81ea\u5df1
p6620
aV\u81ea\u5e26
p6621
aV\u81ea\u5e7c
p6622
aV\u81ea\u5f8b
p6623
aV\u81ea\u5f8b\u6027
p6624
aV\u81ea\u6210\u4f53\u7cfb
p6625
aV\u81ea\u6211
p6626
aV\u81ea\u63a7
p6627
aV\u81ea\u6cbb
p6628
aV\u81ea\u7136
p6629
aV\u81ea\u7136\u54f2\u5b66
p6630
aV\u81ea\u7136\u79d1\u5b66
p6631
aV\u81ea\u7136\u89c2
p6632
aV\u81ea\u7136\u8bed\u8a00
p6633
aV\u81ea\u7136\u8fa9\u8bc1\u6cd5
p6634
aV\u81ea\u7531
p6635
aV\u81ea\u7701
p6636
aV\u81ea\u884c\u8f66
p6637
aV\u81ea\u8bc1
p6638
aV\u81ea\u8eab
p6639
aV\u81ea\u964d
p6640
aV\u81ea\u9876\u5411\u4e0b
p6641
aV\u81ea\u9a7e
p6642
aV\u81ea\u9a7e\u6e38
p6643
aV\u81f3\u4e8e
p6644
aV\u81f3\u4eca
p6645
aV\u81f3\u4eca\u5df2\u6709
p6646
aV\u81f3\u591a
p6647
aV\u81f3\u6781
p6648
aV\u81f3\u6b64
p6649
aV\u81f4\u4ee5
p6650
aV\u81f4\u529b
p6651
aV\u81f4\u529b\u4e8e
p6652
aV\u81f4\u610f
p6653
aV\u81f4\u8c22
p6654
aV\u820d\u5229
p6655
aV\u822a\u5929
p6656
aV\u822a\u5929\u5668
p6657
aV\u822a\u5929\u5de5\u4e1a
p6658
aV\u822a\u5929\u6280\u672f
p6659
aV\u822a\u5929\u822a\u7a7a
p6660
aV\u822a\u6d77
p6661
aV\u822a\u7a7a
p6662
aV\u822a\u7a7a\u822a\u5929
p6663
aV\u822a\u8def
p6664
aV\u822a\u8ff9
p6665
aV\u8235\u624b
p6666
aV\u826f\u591a
p6667
aV\u826f\u597d
p6668
aV\u826f\u6027
p6669
aV\u8270\u6da9
p6670
aV\u8272\u5f69
p6671
aV\u8273\u840d
p6672
aV\u827a\u672f
p6673
aV\u827e\u4e3d\u65af
p6674
aV\u827e\u6839
p6675
aV\u8282\u5f8b
p6676
aV\u8282\u70b9
p6677
aV\u8282\u7ea6\u80fd\u6e90
p6678
aV\u8282\u80fd
p6679
aV\u8282\u80fd\u578b
p6680
aV\u829d\u52a0\u54e5\u5927\u5b66
p6681
aV\u82ac\u5170
p6682
aV\u82ad\u82ad\u62c9
p6683
aV\u82af\u7247
p6684
aV\u82cd\u51c9
p6685
aV\u82cf\u56fd
p6686
aV\u82cf\u8054
p6687
aV\u82e5\u5e72
p6688
aV\u82f1\u53cc\u8bed
p6689
aV\u82f1\u56fd
p6690
aV\u82f1\u56fd\u4f26\u6566\u5927\u5b66
p6691
aV\u82f1\u56fd\u5251\u6865\u5927\u5b66
p6692
aV\u82f1\u56fd\u7687\u5bb6
p6693
aV\u82f1\u6587
p6694
aV\u82f1\u6587\u539f\u7248
p6695
aV\u82f1\u6587\u7248
p6696
aV\u82f1\u6c49
p6697
aV\u82f1\u7f8e
p6698
aV\u82f1\u8bed
p6699
aV\u82f1\u96c4
p6700
aV\u82f9\u679c
p6701
aV\u8303\u4f8b
p6702
aV\u8303\u56f4
p6703
aV\u8303\u56f4\u5e7f
p6704
aV\u8303\u578b
p6705
aV\u8303\u5f0f
p6706
aV\u8303\u5fd7
p6707
aV\u8303\u7574
p6708
aV\u8352\u6728
p6709
aV\u8363\u5e78
p6710
aV\u8363\u6210
p6711
aV\u8363\u81ba
p6712
aV\u8363\u83b7
p6713
aV\u8363\u8a89
p6714
aV\u8377\u5170
p6715
aV\u83b1\u94a2
p6716
aV\u83b7\u53d6
p6717
aV\u83b7\u53d6\u4fe1\u606f
p6718
aV\u83b7\u5de5\u5b66
p6719
aV\u83b7\u5f97
p6720
aV\u83b7\u5f97\u8005
p6721
aV\u83b7\u76ca\u532a\u6d45
p6722
aV\u83b7\u8bc4
p6723
aV\u8425\u9020
p6724
aV\u8425\u9500
p6725
aV\u8425\u9500\u5b66
p6726
aV\u8428\u5e08\u4fca
p6727
aV\u8428\u5e08\u714a
p6728
aV\u8428\u6c0f
p6729
aV\u8428\u9547\u51b0
p6730
aV\u8428\u987f
p6731
aV\u843d\u5b9e
p6732
aV\u8457\u4f5c
p6733
aV\u8457\u540d
p6734
aV\u8457\u6709
p6735
aV\u8461\u8404\u7259
p6736
aV\u8461\u8404\u9152
p6737
aV\u848b\u548c\u660e
p6738
aV\u848b\u5b97\u793c
p6739
aV\u8499\u53e4
p6740
aV\u8499\u5b9a
p6741
aV\u8499\u7279\u5361\u7f57
p6742
aV\u84dd\u672c
p6743
aV\u84dd\u6d77
p6744
aV\u84dd\u7259
p6745
aV\u84ec\u52c3\u53d1\u5c55
p6746
aV\u8521\u5251
p6747
aV\u8574\u6db5\u7740
p6748
aV\u8584\u5f31\u73af\u8282
p6749
aV\u8584\u677f
p6750
aV\u8654\u4fe1
p6751
aV\u865a\u62df
p6752
aV\u865a\u62df\u4e16\u754c
p6753
aV\u865a\u62df\u4eea\u5668
p6754
aV\u865a\u62df\u5316
p6755
aV\u865a\u62df\u5b58\u50a8\u5668
p6756
aV\u865a\u62df\u673a
p6757
aV\u865a\u62df\u73af\u5883
p6758
aV\u865a\u62df\u73b0\u5b9e
p6759
aV\u867d\u7136
p6760
aV\u8682\u8702
p6761
aV\u873f\u8712
p6762
aV\u8774\u8776
p6763
aV\u8774\u8776\u6548\u5e94
p6764
aV\u878d\u4e3a\u4e00\u4f53
p6765
aV\u878d\u4f1a
p6766
aV\u878d\u4f1a\u8d2f\u901a
p6767
aV\u878d\u5165
p6768
aV\u878d\u5408
p6769
aV\u87ba\u65cb
p6770
aV\u884c\u4e1a
p6771
aV\u884c\u4e3a
p6772
aV\u884c\u4e3a\u79d1\u5b66
p6773
aV\u884c\u4e4b\u6709\u6548
p6774
aV\u884c\u5217
p6775
aV\u884c\u52a8
p6776
aV\u884c\u653f
p6777
aV\u884c\u8f66
p6778
aV\u884c\u9500
p6779
aV\u8865\u507f
p6780
aV\u8865\u5145
p6781
aV\u8865\u6b63
p6782
aV\u8865\u6f0f
p6783
aV\u8868\u4e2d
p6784
aV\u8868\u5c42
p6785
aV\u8868\u5f70
p6786
aV\u8868\u610f
p6787
aV\u8868\u660e
p6788
aV\u8868\u683c
p6789
aV\u8868\u73b0
p6790
aV\u8868\u793a
p6791
aV\u8868\u793a\u6cd5
p6792
aV\u8868\u8c61
p6793
aV\u8868\u8fbe
p6794
aV\u8868\u8fbe\u5f0f
p6795
aV\u8868\u8fbe\u601d\u60f3
p6796
aV\u8868\u8fbe\u65b9\u6cd5
p6797
aV\u8868\u8fbe\u80fd\u529b
p6798
aV\u8868\u8ff0
p6799
aV\u8868\u9054
p6800
aV\u8868\u9762
p6801
aV\u8868\u9762\u79ef
p6802
aV\u8870\u51cf
p6803
aV\u8870\u9000
p6804
aV\u8877\u5fc3
p6805
aV\u8881\u5761
p6806
aV\u88ab\u52a8
p6807
aV\u88ab\u5ffd\u89c6
p6808
aV\u88ab\u63a7
p6809
aV\u88ab\u8a89\u4e3a
p6810
aV\u88c1\u526a
p6811
aV\u88c5\u5907
p6812
aV\u88c5\u7f6e
p6813
aV\u88c5\u914d
p6814
aV\u88c5\u914d\u7ebf
p6815
aV\u88e8\u76ca
p6816
aV\u891a\u9738
p6817
aV\u897f\u5317\u5de5\u4e1a\u5927\u5b66
p6818
aV\u897f\u65b9
p6819
aV\u897f\u73ed\u7259
p6820
aV\u897f\u8499\u8457
p6821
aV\u8981\u6bd4
p6822
aV\u8981\u6c42
p6823
aV\u8981\u70b9
p6824
aV\u8981\u7d20
p6825
aV\u8986\u76d6
p6826
aV\u8986\u76d6\u8303\u56f4
p6827
aV\u8986\u76d6\u9762
p6828
aV\u8986\u76d6\u9762\u5e7f
p6829
aV\u89c1\u5230
p6830
aV\u89c1\u89e3
p6831
aV\u89c1\u8bf8
p6832
aV\u89c1\u9762
p6833
aV\u89c2\u5bdf
p6834
aV\u89c2\u5ff5
p6835
aV\u89c2\u6d4b\u5668
p6836
aV\u89c2\u70b9
p6837
aV\u89c4\u5212
p6838
aV\u89c4\u5212\u6cd5
p6839
aV\u89c4\u5212\u8bbe\u8ba1
p6840
aV\u89c4\u5219
p6841
aV\u89c4\u5b9a
p6842
aV\u89c4\u5f8b
p6843
aV\u89c4\u6574
p6844
aV\u89c4\u683c
p6845
aV\u89c4\u6a21
p6846
aV\u89c4\u6cd5
p6847
aV\u89c4\u7a0b
p6848
aV\u89c4\u7ea6
p6849
aV\u89c4\u8303
p6850
aV\u89c4\u8303\u5316
p6851
aV\u89c4\u907f
p6852
aV\u89c6\u4e3a
p6853
aV\u89c6\u542c
p6854
aV\u89c6\u56fe
p6855
aV\u89c6\u666f
p6856
aV\u89c6\u89c9
p6857
aV\u89c6\u89c9\u6548\u679c
p6858
aV\u89c6\u89d2
p6859
aV\u89c6\u9891
p6860
aV\u89c6\u9891\u5361
p6861
aV\u89c6\u9891\u6559\u7a0b
p6862
aV\u89c9\u5f97
p6863
aV\u89d2\u52a0\u901f\u5ea6
p6864
aV\u89d2\u5ea6
p6865
aV\u89d2\u5ea6\u770b
p6866
aV\u89d2\u8272
p6867
aV\u89d2\u901f\u5ea6
p6868
aV\u89e3\u4f53
p6869
aV\u89e3\u51b3
p6870
aV\u89e3\u51b3\u4e4b\u9053
p6871
aV\u89e3\u51b3\u65b9\u6848
p6872
aV\u89e3\u5256
p6873
aV\u89e3\u538b\u7f29
p6874
aV\u89e3\u5bc6
p6875
aV\u89e3\u60d1
p6876
aV\u89e3\u653e
p6877
aV\u89e3\u653e\u519b\u4fe1\u606f\u5de5\u7a0b\u5927\u5b66
p6878
aV\u89e3\u653e\u519b\u7406\u5de5\u5927\u5b66
p6879
aV\u89e3\u653e\u51fa\u6765
p6880
aV\u89e3\u653e\u533a
p6881
aV\u89e3\u6784
p6882
aV\u89e3\u6790
p6883
aV\u89e3\u69cb
p6884
aV\u89e3\u6cd5
p6885
aV\u89e3\u7801
p6886
aV\u89e3\u7b54
p6887
aV\u89e3\u7b97
p6888
aV\u89e3\u8bd1
p6889
aV\u89e3\u8bfb
p6890
aV\u89e3\u8c03
p6891
aV\u89e3\u91ca
p6892
aV\u89e3\u9898
p6893
aV\u89e6\u53d1
p6894
aV\u89e6\u53d1\u5668
p6895
aV\u89e6\u6478
p6896
aV\u8a00\u8bed
p6897
aV\u8a00\u8bed\u751f\u6210
p6898
aV\u8a55\u50f9
p6899
aV\u8a6e\u91cb
p6900
aV\u8a79\u59c6\u65af
p6901
aV\u8a89\u4e3a
p6902
aV\u8a89\u6e05
p6903
aV\u8a8d\u540c
p6904
aV\u8ba1\u4ef7
p6905
aV\u8ba1\u5212
p6906
aV\u8ba1\u6570
p6907
aV\u8ba1\u7b97
p6908
aV\u8ba1\u7b97\u4e2d\u5fc3
p6909
aV\u8ba1\u7b97\u624b\u518c
p6910
aV\u8ba1\u7b97\u6280\u672f
p6911
aV\u8ba1\u7b97\u65b9\u6cd5
p6912
aV\u8ba1\u7b97\u673a
p6913
aV\u8ba1\u7b97\u673a\u4e13\u4e1a
p6914
aV\u8ba1\u7b97\u673a\u4fe1\u606f
p6915
aV\u8ba1\u7b97\u673a\u5316
p6916
aV\u8ba1\u7b97\u673a\u6280\u672f
p6917
aV\u8ba1\u7b97\u673a\u63a7\u5236
p6918
aV\u8ba1\u7b97\u673a\u7528\u6237
p6919
aV\u8ba1\u7b97\u673a\u75c5\u6bd2
p6920
aV\u8ba1\u7b97\u673a\u76f8\u5173
p6921
aV\u8ba1\u7b97\u673a\u786c\u4ef6
p6922
aV\u8ba1\u7b97\u673a\u79d1\u5b66
p6923
aV\u8ba1\u7b97\u673a\u7a0b\u5e8f
p6924
aV\u8ba1\u7b97\u673a\u7cfb
p6925
aV\u8ba1\u7b97\u673a\u7cfb\u7edf
p6926
aV\u8ba1\u7b97\u673a\u7f51\u7edc
p6927
aV\u8ba1\u7b97\u673a\u8f6f\u4ef6
p6928
aV\u8ba1\u7b97\u673a\u8f85\u52a9
p6929
aV\u8ba1\u7b97\u7ad9
p6930
aV\u8ba1\u7b97\u80fd\u529b
p6931
aV\u8ba2\u5355
p6932
aV\u8ba4\u4e3a
p6933
aV\u8ba4\u53ef
p6934
aV\u8ba4\u77e5
p6935
aV\u8ba4\u8bc1
p6936
aV\u8ba4\u8bc6
p6937
aV\u8ba4\u8bc6\u8bba
p6938
aV\u8ba8\u6ca6
p6939
aV\u8ba8\u8bba
p6940
aV\u8bad\u7ec3
p6941
aV\u8bb0\u53f7
p6942
aV\u8bb0\u5f55
p6943
aV\u8bb0\u5fc6
p6944
aV\u8bb0\u8005
p6945
aV\u8bb0\u8d26
p6946
aV\u8bb2\u4e60
p6947
aV\u8bb2\u5e08
p6948
aV\u8bb2\u5ea7
p6949
aV\u8bb2\u6388
p6950
aV\u8bb2\u7a3f
p6951
aV\u8bb2\u7ec3
p6952
aV\u8bb2\u89e3
p6953
aV\u8bb2\u8ff0
p6954
aV\u8bb8\u53ef\u8bc1
p6955
aV\u8bb8\u591a
p6956
aV\u8bba\u5143
p6957
aV\u8bba\u575b
p6958
aV\u8bba\u575b\u4f1a\u5458
p6959
aV\u8bba\u6587
p6960
aV\u8bba\u6587\u96c6
p6961
aV\u8bba\u65ad
p6962
aV\u8bba\u70b9
p6963
aV\u8bba\u8bc1
p6964
aV\u8bba\u8ff0
p6965
aV\u8bba\u9898
p6966
aV\u8bbe\u5907
p6967
aV\u8bbe\u5b9a
p6968
aV\u8bbe\u65bd
p6969
aV\u8bbe\u6709
p6970
aV\u8bbe\u7acb
p6971
aV\u8bbe\u7f6e
p6972
aV\u8bbe\u8ba1
p6973
aV\u8bbe\u8ba1\u5e08
p6974
aV\u8bbe\u8ba1\u65b9\u6848
p6975
aV\u8bbe\u8ba1\u8005
p6976
aV\u8bbf\u95ee
p6977
aV\u8bbf\u95ee\u63a7\u5236
p6978
aV\u8bc1\u4ef6
p6979
aV\u8bc1\u5238
p6980
aV\u8bc1\u5238\u5e02\u573a
p6981
aV\u8bc1\u5b9e
p6982
aV\u8bc1\u636e
p6983
aV\u8bc1\u660e
p6984
aV\u8bc4\u4e3a
p6985
aV\u8bc4\u4ef7
p6986
aV\u8bc4\u4f30
p6987
aV\u8bc4\u5224
p6988
aV\u8bc4\u5b9a
p6989
aV\u8bc4\u5ba1
p6990
aV\u8bc4\u6d4b
p6991
aV\u8bc4\u8bba
p6992
aV\u8bc4\u8bf4
p6993
aV\u8bc4\u8ff0
p6994
aV\u8bc4\u9009
p6995
aV\u8bc6\u522b
p6996
aV\u8bc6\u522b\u5668
p6997
aV\u8bc6\u522b\u65b9\u6cd5
p6998
aV\u8bc6\u522b\u7cfb\u7edf
p6999
aV\u8bca\u65ad
p7000
aV\u8bcd\u4e49
p7001
aV\u8bcd\u4f4d
p7002
aV\u8bcd\u5178
p7003
aV\u8bcd\u5e72
p7004
aV\u8bcd\u5e93
p7005
aV\u8bcd\u6027
p7006
aV\u8bcd\u6c47
p7007
aV\u8bcd\u6c47\u8868
p7008
aV\u8bcd\u6cd5
p7009
aV\u8bcd\u7c7b
p7010
aV\u8bcd\u7ea7
p7011
aV\u8bcd\u7f00
p7012
aV\u8bcd\u8868
p7013
aV\u8bcd\u8bed
p7014
aV\u8bcd\u9891
p7015
aV\u8bd1\u4f5c
p7016
aV\u8bd1\u51fa
p7017
aV\u8bd1\u6210
p7018
aV\u8bd1\u6587
p7019
aV\u8bd1\u672c
p7020
aV\u8bd1\u6797
p7021
aV\u8bd1\u7801
p7022
aV\u8bd1\u7a3f
p7023
aV\u8bd1\u8005
p7024
aV\u8bd1\u8457
p7025
aV\u8bd1\u8ff0
p7026
aV\u8bd5\u5377
p7027
aV\u8bd5\u56fe
p7028
aV\u8bd5\u63a2\u6027
p7029
aV\u8bd5\u9898
p7030
aV\u8bd5\u98de
p7031
aV\u8bd5\u9a8c
p7032
aV\u8bd5\u9a8c\u62a5\u544a
p7033
aV\u8bdd\u6bb5
p7034
aV\u8bdd\u8bed
p7035
aV\u8bdd\u8bed\u5206\u6790
p7036
aV\u8bdd\u8f6e
p7037
aV\u8bdd\u97f3
p7038
aV\u8bdd\u9898
p7039
aV\u8bde\u751f
p7040
aV\u8be0\u91ca
p7041
aV\u8be5\u4e66
p7042
aV\u8be5\u520a
p7043
aV\u8be5\u6240
p7044
aV\u8be5\u6821
p7045
aV\u8be5\u7ae0
p7046
aV\u8be5\u8f6f\u4ef6
p7047
aV\u8be6\u56fe
p7048
aV\u8be6\u5b9e
p7049
aV\u8be6\u5c3d
p7050
aV\u8be6\u660e
p7051
aV\u8be6\u7ec6
p7052
aV\u8be6\u7ec6\u5206\u6790
p7053
aV\u8be6\u7ec6\u63cf\u8ff0
p7054
aV\u8be6\u89c1
p7055
aV\u8be6\u89e3
p7056
aV\u8bed\u4e49
p7057
aV\u8bed\u4e49\u542f\u52a8
p7058
aV\u8bed\u4e49\u5b66
p7059
aV\u8bed\u53e5
p7060
aV\u8bed\u6587
p7061
aV\u8bed\u6599
p7062
aV\u8bed\u6599\u5e93
p7063
aV\u8bed\u6cd5
p7064
aV\u8bed\u6cd5\u5206\u6790
p7065
aV\u8bed\u7528
p7066
aV\u8bed\u8a00
p7067
aV\u8bed\u8a00\u5b66
p7068
aV\u8bed\u8a00\u6587\u5b57
p7069
aV\u8bed\u8a00\u6587\u5b66
p7070
aV\u8bed\u8a00\u8bba
p7071
aV\u8bed\u8a00\u969c\u788d
p7072
aV\u8bed\u97f3
p7073
aV\u8bed\u97f3\u5b66
p7074
aV\u8bed\u97f3\u8f93\u5165
p7075
aV\u8bef\u5dee
p7076
aV\u8bf1\u60d1
p7077
aV\u8bf4\u5b8c
p7078
aV\u8bf4\u660e
p7079
aV\u8bf4\u660e\u4e66
p7080
aV\u8bf4\u660e\u6027
p7081
aV\u8bf4\u7406
p7082
aV\u8bf4\u8bdd
p7083
aV\u8bf7\u6c42
p7084
aV\u8bf8\u591a
p7085
aV\u8bf8\u5982
p7086
aV\u8bf8\u79cd
p7087
aV\u8bf8\u7bc7
p7088
aV\u8bfa\u4f2f\u7279
p7089
aV\u8bfa\u57fa\u4e9a
p7090
aV\u8bfa\u8d1d\u5c14\u5316\u5b66\u5956
p7091
aV\u8bfa\u8d1d\u5c14\u7269\u7406\u5b66\u5956
p7092
aV\u8bfb\u4e66
p7093
aV\u8bfb\u5199
p7094
aV\u8bfb\u51fa
p7095
aV\u8bfb\u5230
p7096
aV\u8bfb\u53d6
p7097
aV\u8bfb\u672c
p7098
aV\u8bfb\u7269
p7099
aV\u8bfb\u8005
p7100
aV\u8bfb\u8005\u7fa4
p7101
aV\u8bfb\u97f3
p7102
aV\u8bfe\u4ef6
p7103
aV\u8bfe\u540e
p7104
aV\u8bfe\u6587
p7105
aV\u8bfe\u7a0b
p7106
aV\u8bfe\u7a0b\u4f53\u7cfb
p7107
aV\u8bfe\u7a0b\u5185\u5bb9
p7108
aV\u8bfe\u7a0b\u8ba1\u5212
p7109
aV\u8bfe\u7a0b\u8bbe\u8ba1
p7110
aV\u8bfe\u9898
p7111
aV\u8bfe\u9898\u7ec4
p7112
aV\u8c03\u4f18
p7113
aV\u8c03\u5236
p7114
aV\u8c03\u5236\u89e3\u8c03\u5668
p7115
aV\u8c03\u548c
p7116
aV\u8c03\u5ea6
p7117
aV\u8c03\u6574
p7118
aV\u8c03\u67e5
p7119
aV\u8c03\u7528
p7120
aV\u8c03\u7814
p7121
aV\u8c03\u8282
p7122
aV\u8c03\u8bd5
p7123
aV\u8c03\u8c10
p7124
aV\u8c03\u901f
p7125
aV\u8c06\u8c06
p7126
aV\u8c08\u8bba
p7127
aV\u8c13\u8bcd
p7128
aV\u8c13\u8bcd\u6f14\u7b97
p7129
aV\u8c22\u5ff1
p7130
aV\u8c22\u610f
p7131
aV\u8c28\u614e
p7132
aV\u8c28\u81f4
p7133
aV\u8c2d\u7a0b
p7134
aV\u8c31\u4f30\u8ba1
p7135
aV\u8c37\u6b4c
p7136
aV\u8c61\u7d20
p7137
aV\u8cc7\u6599
p7138
aV\u8d1d\u53f6\u65af
p7139
aV\u8d1d\u53f8\u624b
p7140
aV\u8d1d\u585e\u5c14
p7141
aV\u8d1f\u53cd\u9988
p7142
aV\u8d1f\u6709
p7143
aV\u8d1f\u71b5
p7144
aV\u8d1f\u8377
p7145
aV\u8d1f\u8d23
p7146
aV\u8d1f\u8d23\u4eba
p7147
aV\u8d21\u732e
p7148
aV\u8d22\u52a1\u7ba1\u7406
p7149
aV\u8d22\u5bcc
p7150
aV\u8d22\u7ecf\u7c7b
p7151
aV\u8d23\u4efb
p7152
aV\u8d23\u4efb\u611f
p7153
aV\u8d23\u4efb\u7f16\u8f91
p7154
aV\u8d26\u6237
p7155
aV\u8d27\u8fd0\u91cf
p7156
aV\u8d28\u53d8
p7157
aV\u8d28\u7591
p7158
aV\u8d28\u91cf
p7159
aV\u8d2b\u56f0
p7160
aV\u8d2d\u7269
p7161
aV\u8d2f\u5f7b
p7162
aV\u8d2f\u7a7f
p7163
aV\u8d2f\u901a
p7164
aV\u8d34\u56fe
p7165
aV\u8d34\u8fd1
p7166
aV\u8d35\u5dde
p7167
aV\u8d39\u66fc
p7168
aV\u8d39\u6839
p7169
aV\u8d39\u7528
p7170
aV\u8d44\u4ea7
p7171
aV\u8d44\u4ea7\u9636\u7ea7
p7172
aV\u8d44\u52a9
p7173
aV\u8d44\u6599
p7174
aV\u8d44\u672c\u4e3b\u4e49
p7175
aV\u8d44\u683c
p7176
aV\u8d44\u683c\u8003\u8bd5
p7177
aV\u8d44\u6df1
p7178
aV\u8d44\u6e90
p7179
aV\u8d44\u6e90\u7ba1\u7406
p7180
aV\u8d44\u8baf
p7181
aV\u8d44\u91d1
p7182
aV\u8d4b\u4e88
p7183
aV\u8d56\u6625\u6ce2
p7184
aV\u8d5b\u8f66
p7185
aV\u8d5b\u9a6c
p7186
aV\u8d5e\u6210
p7187
aV\u8d6b\u5c14\u66fc
p7188
aV\u8d6b\u7279
p7189
aV\u8d70\u52a8
p7190
aV\u8d70\u5f2f\u8def
p7191
aV\u8d70\u8fd1
p7192
aV\u8d70\u8fdb
p7193
aV\u8d74\u7f8e
p7194
aV\u8d75\u521a
p7195
aV\u8d77\u4efb
p7196
aV\u8d77\u521d
p7197
aV\u8d77\u5230
p7198
aV\u8d77\u6765
p7199
aV\u8d77\u6e90
p7200
aV\u8d77\u70b9
p7201
aV\u8d77\u8d77\u843d\u843d
p7202
aV\u8d85\u4e4e
p7203
aV\u8d85\u4eba
p7204
aV\u8d85\u51fa
p7205
aV\u8d85\u58f0\u901f
p7206
aV\u8d85\u5e02
p7207
aV\u8d85\u5e38
p7208
aV\u8d85\u5fae\u7ed3\u6784
p7209
aV\u8d85\u7ea7
p7210
aV\u8d85\u7ea7\u8ba1\u7b97\u673a
p7211
aV\u8d85\u7ebf\u7a0b
p7212
aV\u8d85\u8d8a
p7213
aV\u8d85\u8fc7
p7214
aV\u8d8a\u6765\u8d8a
p7215
aV\u8d8a\u6765\u8d8a\u5feb
p7216
aV\u8d8b\u4e8e
p7217
aV\u8d8b\u52bf
p7218
aV\u8d8b\u5411
p7219
aV\u8da3\u95fb
p7220
aV\u8db3\u8ff9
p7221
aV\u8dc3\u8fdb
p7222
aV\u8dcb\u6d89
p7223
aV\u8dcc\u5012
p7224
aV\u8ddd\u79bb
p7225
aV\u8ddf\u4e0d\u4e0a
p7226
aV\u8ddf\u8e2a
p7227
aV\u8ddf\u968f
p7228
aV\u8de8\u5b66\u79d1
p7229
aV\u8de8\u5e73\u53f0
p7230
aV\u8de8\u8d8a
p7231
aV\u8de8\u8fc7
p7232
aV\u8def\u4e2d
p7233
aV\u8def\u4e66
p7234
aV\u8def\u51b5
p7235
aV\u8def\u5f84
p7236
aV\u8def\u7531
p7237
aV\u8def\u7531\u5668
p7238
aV\u8e69\u811a
p7239
aV\u8eab\u4efd
p7240
aV\u8eab\u4f53
p7241
aV\u8eab\u5fc3
p7242
aV\u8eb2\u907f
p7243
aV\u8f49\u5316
p7244
aV\u8f68\u8ff9
p7245
aV\u8f68\u9053
p7246
aV\u8f6c\u5230
p7247
aV\u8f6c\u5316
p7248
aV\u8f6c\u5316\u6210
p7249
aV\u8f6c\u53d8
p7250
aV\u8f6c\u5411
p7251
aV\u8f6c\u578b
p7252
aV\u8f6c\u5b50
p7253
aV\u8f6c\u5f55
p7254
aV\u8f6c\u6362
p7255
aV\u8f6c\u6362\u5668
p7256
aV\u8f6c\u79fb
p7257
aV\u8f6c\u8bd1
p7258
aV\u8f6e\u5ed3
p7259
aV\u8f6e\u5f0f
p7260
aV\u8f6f\u4ef6
p7261
aV\u8f6f\u4ef6\u4e1a
p7262
aV\u8f6f\u4ef6\u4f53\u7cfb\u7ed3\u6784
p7263
aV\u8f6f\u4ef6\u53ef\u9760\u6027
p7264
aV\u8f6f\u4ef6\u5de5\u5177
p7265
aV\u8f6f\u4ef6\u5de5\u7a0b
p7266
aV\u8f6f\u4ef6\u5de5\u7a0b\u5b66
p7267
aV\u8f6f\u4ef6\u5e73\u53f0
p7268
aV\u8f6f\u4ef6\u5e94\u7528
p7269
aV\u8f6f\u4ef6\u5f00\u53d1
p7270
aV\u8f6f\u4ef6\u6280\u672f
p7271
aV\u8f6f\u4ef6\u67b6\u6784
p7272
aV\u8f6f\u4ef6\u6d4b\u8bd5
p7273
aV\u8f6f\u4ef6\u7cfb\u7edf
p7274
aV\u8f6f\u4ef6\u7ed3\u6784
p7275
aV\u8f6f\u4ef6\u8bbe\u8ba1
p7276
aV\u8f6f\u76d8
p7277
aV\u8f6f\u786c
p7278
aV\u8f6f\u786c\u4ef6
p7279
aV\u8f70\u52a8
p7280
aV\u8f7b\u677e
p7281
aV\u8f7d\u6ce2
p7282
aV\u8f83\u4e3a
p7283
aV\u8f83\u591a
p7284
aV\u8f83\u5927
p7285
aV\u8f83\u597d
p7286
aV\u8f83\u5b8c\u6574
p7287
aV\u8f83\u5e7f
p7288
aV\u8f83\u5f3a
p7289
aV\u8f83\u5feb
p7290
aV\u8f83\u9ad8
p7291
aV\u8f85\u4ee5
p7292
aV\u8f85\u52a9
p7293
aV\u8f85\u52a9\u6750\u6599
p7294
aV\u8f85\u5bfc
p7295
aV\u8f85\u5bfc\u6750\u6599
p7296
aV\u8f85\u97f3
p7297
aV\u8f89\u714c
p7298
aV\u8f89\u714c\u6210\u5c31
p7299
aV\u8f93\u5165
p7300
aV\u8f93\u5165\u8f93\u51fa
p7301
aV\u8f93\u51fa
p7302
aV\u8f93\u51fa\u8bbe\u5907
p7303
aV\u8f93\u53d8\u7535
p7304
aV\u8f93\u6389
p7305
aV\u8f93\u7535
p7306
aV\u8f96\u57df
p7307
aV\u8f9b\u666e\u68ee
p7308
aV\u8fa8\u8bc6
p7309
aV\u8fa9\u8bc1
p7310
aV\u8fa9\u8bc1\u6cd5
p7311
aV\u8fb9\u7801
p7312
aV\u8fb9\u7f18
p7313
aV\u8fbd\u5b81
p7314
aV\u8fbe\u4eba
p7315
aV\u8fbe\u514b\u65af
p7316
aV\u8fbe\u5230
p7317
aV\u8fbe\u59c6
p7318
aV\u8fbe\u610f
p7319
aV\u8fc2\u56de
p7320
aV\u8fc4\u4eca\u4e3a\u6b62
p7321
aV\u8fc5\u901f
p7322
aV\u8fc7\u4e8e
p7323
aV\u8fc7\u5173
p7324
aV\u8fc7\u5206
p7325
aV\u8fc7\u53bb
p7326
aV\u8fc7\u5883
p7327
aV\u8fc7\u6ee4
p7328
aV\u8fc7\u7a0b
p7329
aV\u8fc8\u514b
p7330
aV\u8fc8\u5c14
p7331
aV\u8fc8\u5c14\u65af
p7332
aV\u8fc8\u8fdb
p7333
aV\u8fd0\u4f5c
p7334
aV\u8fd0\u52a8
p7335
aV\u8fd0\u52a8\u5b66
p7336
aV\u8fd0\u7528
p7337
aV\u8fd0\u7b79\u5b66
p7338
aV\u8fd0\u7b97
p7339
aV\u8fd0\u7b97\u7b26
p7340
aV\u8fd0\u8425
p7341
aV\u8fd0\u884c
p7342
aV\u8fd0\u8f6c
p7343
aV\u8fd0\u8f7d\u5de5\u5177
p7344
aV\u8fd0\u8f93
p7345
aV\u8fd1\u4e8e
p7346
aV\u8fd1\u4e9b\u5e74\u6765
p7347
aV\u8fd1\u4ee3
p7348
aV\u8fd1\u4f3c
p7349
aV\u8fd1\u51e0\u5e74
p7350
aV\u8fd1\u51e0\u5e74\u6765
p7351
aV\u8fd1\u5341\u5e74
p7352
aV\u8fd1\u5e74
p7353
aV\u8fd1\u5e74\u6765
p7354
aV\u8fd1\u671f
p7355
aV\u8fd1\u6765
p7356
aV\u8fd1\u90bb
p7357
aV\u8fd4\u56de
p7358
aV\u8fd8\u4e3a
p7359
aV\u8fd8\u539f
p7360
aV\u8fd8\u539f\u8bba
p7361
aV\u8fd8\u662f
p7362
aV\u8fd8\u6709
p7363
aV\u8fd8\u8981
p7364
aV\u8fd9\u4e00
p7365
aV\u8fd9\u4e2a
p7366
aV\u8fd9\u4e48
p7367
aV\u8fd9\u4e9b
p7368
aV\u8fd9\u4f4d
p7369
aV\u8fd9\u5c31\u662f\u8bf4
p7370
aV\u8fd9\u65b9\u9762
p7371
aV\u8fd9\u672c
p7372
aV\u8fd9\u6837
p7373
aV\u8fd9\u6b21
p7374
aV\u8fd9\u79cd
p7375
aV\u8fd9\u7b14
p7376
aV\u8fd9\u90e8
p7377
aV\u8fd9\u90e8\u5206
p7378
aV\u8fd9\u91cc
p7379
aV\u8fdb\u4e00\u6b65
p7380
aV\u8fdb\u4e00\u6b65\u63d0\u9ad8
p7381
aV\u8fdb\u5165
p7382
aV\u8fdb\u5316
p7383
aV\u8fdb\u5c55
p7384
aV\u8fdb\u6b65
p7385
aV\u8fdb\u6b65\u5956
p7386
aV\u8fdb\u7a0b
p7387
aV\u8fdb\u800c
p7388
aV\u8fdb\u884c
p7389
aV\u8fdc\u4e1c
p7390
aV\u8fdc\u671f
p7391
aV\u8fdc\u79bb
p7392
aV\u8fdc\u7a0b
p7393
aV\u8fdc\u8fdc
p7394
aV\u8fde\u63a5
p7395
aV\u8fde\u7eed
p7396
aV\u8fde\u7eed\u6027
p7397
aV\u8fde\u7f00
p7398
aV\u8fde\u8d2f
p7399
aV\u8fde\u8d2f\u6027
p7400
aV\u8fde\u901a\u6027
p7401
aV\u8fde\u9501
p7402
aV\u8fed\u4ee3
p7403
aV\u8fed\u4ee3\u6cd5
p7404
aV\u8ff8\u5316
p7405
aV\u8ffd\u5bfb
p7406
aV\u8ffd\u6c42
p7407
aV\u8ffd\u6eaf
p7408
aV\u8ffd\u7a76
p7409
aV\u8ffd\u8d76
p7410
aV\u9000\u4f11
p7411
aV\u9001\u8fbe
p7412
aV\u9002\u4e2d
p7413
aV\u9002\u4e8e
p7414
aV\u9002\u5408
p7415
aV\u9002\u5b9c
p7416
aV\u9002\u5e94
p7417
aV\u9002\u5e94\u63a7\u5236
p7418
aV\u9002\u5f53
p7419
aV\u9002\u7528
p7420
aV\u9002\u7528\u6027
p7421
aV\u9002\u914d\u5668
p7422
aV\u9006\u53d8\u5668
p7423
aV\u9006\u5411
p7424
aV\u9009\u4f5c
p7425
aV\u9009\u4fee
p7426
aV\u9009\u4fee\u8bfe
p7427
aV\u9009\u505a
p7428
aV\u9009\u53d6
p7429
aV\u9009\u62e9
p7430
aV\u9009\u62e9\u6027
p7431
aV\u9009\u6750
p7432
aV\u9009\u7528
p7433
aV\u9009\u81ea
p7434
aV\u9009\u8bb2
p7435
aV\u9009\u8d2d
p7436
aV\u900f\u5f7b
p7437
aV\u900f\u89c6
p7438
aV\u900f\u8fc7
p7439
aV\u9010\u5c42
p7440
aV\u9010\u6b21
p7441
aV\u9010\u6b65
p7442
aV\u9010\u6e10
p7443
aV\u9012\u5f52
p7444
aV\u9012\u5f52\u51fd\u6570
p7445
aV\u9012\u5f52\u7ed3\u6784
p7446
aV\u9012\u5f52\u8bba
p7447
aV\u9012\u9636\u63a7\u5236
p7448
aV\u9014\u4e2d
p7449
aV\u9014\u5f84
p7450
aV\u9014\u5f91
p7451
aV\u9019\u500b
p7452
aV\u901a\u4fd7
p7453
aV\u901a\u4fd7\u6613\u61c2
p7454
aV\u901a\u4fe1
p7455
aV\u901a\u4fe1\u5b89\u5168
p7456
aV\u901a\u4fe1\u5de5\u7a0b
p7457
aV\u901a\u4fe1\u6a21\u578b
p7458
aV\u901a\u4fe1\u90e8
p7459
aV\u901a\u5e38
p7460
aV\u901a\u624d
p7461
aV\u901a\u6c14
p7462
aV\u901a\u7528
p7463
aV\u901a\u7528\u6027
p7464
aV\u901a\u7528\u7535\u6c14\u516c\u53f8
p7465
aV\u901a\u7528\u8f6f\u4ef6
p7466
aV\u901a\u8baf
p7467
aV\u901a\u8bc6
p7468
aV\u901a\u8fbe
p7469
aV\u901a\u8fc7
p7470
aV\u901a\u900f
p7471
aV\u901a\u9053
p7472
aV\u901a\u9605
p7473
aV\u901a\u987a
p7474
aV\u901f\u5ea6
p7475
aV\u901f\u67e5
p7476
aV\u9020\u4ef7
p7477
aV\u9020\u4ef7\u5458
p7478
aV\u9020\u578b
p7479
aV\u9020\u6210
p7480
aV\u9020\u8be3
p7481
aV\u903b\u8f91
p7482
aV\u903b\u8f91\u5173\u7cfb
p7483
aV\u903b\u8f91\u63a8\u7406
p7484
aV\u903b\u8f91\u7535\u8def
p7485
aV\u903b\u8f91\u7cfb\u7edf
p7486
aV\u903b\u8f91\u8bbe\u8ba1
p7487
aV\u903c\u771f
p7488
aV\u903c\u8fd1
p7489
aV\u9047\u5230
p7490
aV\u904d\u5386
p7491
aV\u904d\u5e03
p7492
aV\u904d\u6027
p7493
aV\u904e\u7a0b
p7494
aV\u9053\u4e49\u8d23\u4efb
p7495
aV\u9053\u542c\u9014\u8bf4
p7496
aV\u9053\u5fb7
p7497
aV\u9053\u5fb7\u54f2\u5b66
p7498
aV\u9053\u8def
p7499
aV\u9057\u4ea7
p7500
aV\u9057\u4f20\u7b97\u6cd5
p7501
aV\u9057\u6f0f
p7502
aV\u9065\u611f
p7503
aV\u9065\u63a7
p7504
aV\u906d\u5230
p7505
aV\u9074\u9009
p7506
aV\u9075\u4ece
p7507
aV\u9075\u5faa
p7508
aV\u907f\u514d
p7509
aV\u907f\u5f00
p7510
aV\u907f\u969c
p7511
aV\u9093\u4fca\u8f89
p7512
aV\u90a3\u4e2a
p7513
aV\u90a3\u4e48
p7514
aV\u90a3\u4e9b
p7515
aV\u90a3\u6837
p7516
aV\u90a3\u79cd
p7517
aV\u90a3\u91cc
p7518
aV\u90ae\u4ef6
p7519
aV\u90b9\u5609\u5f66
p7520
aV\u90bb\u57df
p7521
aV\u90bb\u63a5
p7522
aV\u90bb\u63a5\u77e9\u9635
p7523
aV\u90bb\u6cd5
p7524
aV\u90ce\u829d
p7525
aV\u90d1\u7eac\u6c11
p7526
aV\u90e8\u4ef6
p7527
aV\u90e8\u4f4d
p7528
aV\u90e8\u5206
p7529
aV\u90e8\u7ea7
p7530
aV\u90e8\u7f72
p7531
aV\u90e8\u957f
p7532
aV\u90e8\u95e8
p7533
aV\u90e8\u961f
p7534
aV\u90fd\u4fe1\u771f
p7535
aV\u914d\u4ef6
p7536
aV\u914d\u4ef7
p7537
aV\u914d\u51c6
p7538
aV\u914d\u5907
p7539
aV\u914d\u5957
p7540
aV\u914d\u6709
p7541
aV\u914d\u7535
p7542
aV\u914d\u7f6e
p7543
aV\u914d\u7f6e\u7ba1\u7406
p7544
aV\u91c7\u53d6
p7545
aV\u91c7\u53d6\u63aa\u65bd
p7546
aV\u91c7\u53d6\u6709\u6548
p7547
aV\u91c7\u6696
p7548
aV\u91c7\u6837
p7549
aV\u91c7\u6837\u7cfb\u7edf
p7550
aV\u91c7\u7528
p7551
aV\u91c7\u7eb3
p7552
aV\u91c7\u8bbf\u8bb0\u8005
p7553
aV\u91c7\u8d2d
p7554
aV\u91c7\u96c6
p7555
aV\u91cc\u59c6
p7556
aV\u91cc\u7a0b
p7557
aV\u91cc\u7a0b\u7891
p7558
aV\u91cc\u7a0b\u7891\u5f0f
p7559
aV\u91cd\u5199
p7560
aV\u91cd\u590d
p7561
aV\u91cd\u5927
p7562
aV\u91cd\u5efa
p7563
aV\u91cd\u65b0
p7564
aV\u91cd\u6784
p7565
aV\u91cd\u70b9
p7566
aV\u91cd\u7ec4
p7567
aV\u91cd\u8981
p7568
aV\u91cd\u8981\u6027
p7569
aV\u91cd\u8981\u73af\u8282
p7570
aV\u91cd\u8981\u8457\u4f5c
p7571
aV\u91cd\u89c6
p7572
aV\u91cd\u8bd1
p7573
aV\u91ce\u751f\u52a8\u7269
p7574
aV\u91cf\u5316
p7575
aV\u91cf\u5b50
p7576
aV\u91cf\u5b50\u5149\u5b66
p7577
aV\u91cf\u5b50\u529b\u5b66
p7578
aV\u91cf\u5b50\u5316\u5b66
p7579
aV\u91cf\u5b50\u573a\u8bba
p7580
aV\u91cf\u8bcd
p7581
aV\u91cf\u8eab
p7582
aV\u91d1\u5956
p7583
aV\u91d1\u5c5e\u6750\u6599
p7584
aV\u91d1\u6865\u7f51
p7585
aV\u91d1\u878d
p7586
aV\u9274\u5b9a
p7587
aV\u9488\u5bf9
p7588
aV\u9488\u5bf9\u6027
p7589
aV\u949f\u97e7
p7590
aV\u94b1\u5b66\u68ee
p7591
aV\u94bb\u4e95
p7592
aV\u94f6\u884c
p7593
aV\u94fe\u53cd\u5e94
p7594
aV\u94fe\u63a5
p7595
aV\u94fe\u63a5\u8868
p7596
aV\u94fe\u8def
p7597
aV\u94fe\u8def\u5c42
p7598
aV\u9500\u552e
p7599
aV\u9501\u5b9a
p7600
aV\u9501\u76f8\u73af
p7601
aV\u9510\u5229\u6b66\u5668
p7602
aV\u9519\u8bef
p7603
aV\u9519\u8bef\u7387
p7604
aV\u952e\u503c
p7605
aV\u952e\u76d8
p7606
aV\u953b\u70bc
p7607
aV\u9547\u5b9a
p7608
aV\u9547\u7ea7
p7609
aV\u957f\u4e45\u4ee5\u6765
p7610
aV\u957f\u5b89
p7611
aV\u957f\u671f
p7612
aV\u957f\u8ddd\u79bb
p7613
aV\u957f\u8fbe
p7614
aV\u95e1\u91cb
p7615
aV\u95e8\u69db
p7616
aV\u95e8\u7535\u8def
p7617
aV\u95e8\u7c7b
p7618
aV\u95ed\u73af
p7619
aV\u95ed\u73af\u63a7\u5236
p7620
aV\u95ee\u4e16
p7621
aV\u95ee\u7b54
p7622
aV\u95ee\u9898
p7623
aV\u95ee\u9898\u89e3\u7b54
p7624
aV\u95f2\u6687
p7625
aV\u95f4\u6709
p7626
aV\u95fb\u540d
p7627
aV\u95fb\u540d\u4e16\u754c
p7628
aV\u9605\u8bfb
p7629
aV\u9608\u503c
p7630
aV\u9610\u660e
p7631
aV\u9610\u8ff0
p7632
aV\u9610\u91ca
p7633
aV\u961f\u4f0d
p7634
aV\u961f\u5217
p7635
aV\u962e\u5409\u5bff
p7636
aV\u9632\u5fa1
p7637
aV\u9632\u62a4
p7638
aV\u9632\u6bd2
p7639
aV\u9632\u706b\u5899
p7640
aV\u9632\u75c5\u6bd2
p7641
aV\u9632\u7a7a
p7642
aV\u9632\u7ebf
p7643
aV\u9632\u8303
p7644
aV\u9633\u5149
p7645
aV\u9633\u632f\u5764
p7646
aV\u9634\u5f71
p7647
aV\u9634\u8c0b
p7648
aV\u9635\u5217
p7649
aV\u9635\u8425
p7650
aV\u9636\u6bb5
p7651
aV\u9636\u6bb5\u6027
p7652
aV\u9636\u7ea7\u6597\u4e89
p7653
aV\u963b\u585e
p7654
aV\u963b\u5bb9
p7655
aV\u963f\u59c6\u65af\u7279\u4e39
p7656
aV\u963f\u5c14\u5361\u7279
p7657
aV\u963f\u62c9\u4f2f\u8bed
p7658
aV\u963f\u8bfa
p7659
aV\u963f\u91cc
p7660
aV\u963f\u91cc\u5df4\u5df4
p7661
aV\u963f\u9ed8\u65af
p7662
aV\u9640\u87ba
p7663
aV\u9644\u5149\u76d8
p7664
aV\u9644\u51fa
p7665
aV\u9644\u52a0
p7666
aV\u9644\u5c5e
p7667
aV\u9644\u5e26
p7668
aV\u9644\u5f55
p7669
aV\u9644\u6709
p7670
aV\u9644\u8d60
p7671
aV\u9644\u8fd1
p7672
aV\u9648\u5fd7\u521a
p7673
aV\u9648\u6587\u5b87
p7674
aV\u9648\u9752\u840d
p7675
aV\u9648\u9e23
p7676
aV\u964c\u751f
p7677
aV\u964d\u4e0b\u6765
p7678
aV\u964d\u4f4e
p7679
aV\u964d\u5230
p7680
aV\u964d\u7ef4
p7681
aV\u964d\u9636
p7682
aV\u9650\u4e8e
p7683
aV\u9650\u5236
p7684
aV\u9650\u5ea6
p7685
aV\u9655\u897f
p7686
aV\u9655\u897f\u7701
p7687
aV\u9662\u58eb
p7688
aV\u9662\u6821
p7689
aV\u9662\u957f
p7690
aV\u9664\u4e86
p7691
aV\u9676\u74f7\u6750\u6599
p7692
aV\u9677\u5165
p7693
aV\u9677\u5165\u50f5\u5c40
p7694
aV\u968f\u4e66
p7695
aV\u968f\u4fbf
p7696
aV\u968f\u52a8
p7697
aV\u968f\u5373
p7698
aV\u968f\u540e
p7699
aV\u968f\u5904\u53ef\u89c1
p7700
aV\u968f\u65f6
p7701
aV\u968f\u673a
p7702
aV\u968f\u673a\u53d8\u91cf
p7703
aV\u968f\u673a\u6027
p7704
aV\u968f\u673a\u632f\u52a8
p7705
aV\u968f\u673a\u6570
p7706
aV\u968f\u7740
p7707
aV\u9690\u5199\u672f
p7708
aV\u9690\u542b
p7709
aV\u9690\u55bb
p7710
aV\u9690\u6db5
p7711
aV\u9690\u79c1
p7712
aV\u9690\u85cf
p7713
aV\u9694\u79bb
p7714
aV\u9694\u7edd
p7715
aV\u969c\u788d
p7716
aV\u969c\u788d\u7269
p7717
aV\u96b6\u5c5e
p7718
aV\u96be\u4ee5
p7719
aV\u96be\u4ee5\u89e3\u51b3
p7720
aV\u96be\u514d
p7721
aV\u96be\u5ea6
p7722
aV\u96be\u5f97
p7723
aV\u96be\u61c2
p7724
aV\u96be\u6613
p7725
aV\u96be\u70b9
p7726
aV\u96c5\u5178
p7727
aV\u96c6\u4e0e
p7728
aV\u96c6\u4e2d
p7729
aV\u96c6\u4f53
p7730
aV\u96c6\u53ca
p7731
aV\u96c6\u53ef
p7732
aV\u96c6\u5408
p7733
aV\u96c6\u5408\u70b9
p7734
aV\u96c6\u5408\u8bba
p7735
aV\u96c6\u548c\u95f4
p7736
aV\u96c6\u56e2
p7737
aV\u96c6\u5982
p7738
aV\u96c6\u6210
p7739
aV\u96c6\u6210\u5316
p7740
aV\u96c6\u6210\u5546
p7741
aV\u96c6\u6210\u7535\u8def
p7742
aV\u96c6\u667a
p7743
aV\u96c6\u6cd5
p7744
aV\u96c6\u7ebf\u5668
p7745
aV\u96c6\u7ed3
p7746
aV\u96c6\u7fa4
p7747
aV\u96e8\u679c
p7748
aV\u96f6\u4ef6
p7749
aV\u96f6\u788e
p7750
aV\u96f7\u8fbe
p7751
aV\u96fb\u5f71
p7752
aV\u9700\u6c42
p7753
aV\u9700\u6c42\u9884\u6d4b
p7754
aV\u9700\u8981
p7755
aV\u970d\u592b\u66fc
p7756
aV\u970d\u5f17
p7757
aV\u970d\u666e
p7758
aV\u970d\u666e\u91d1\u65af
p7759
aV\u970d\u91d1\u65af
p7760
aV\u9752\u5c11\u5e74
p7761
aV\u9752\u5e74
p7762
aV\u9752\u5e74\u6559\u5e08
p7763
aV\u9752\u5e74\u65f6\u4ee3
p7764
aV\u9752\u7750
p7765
aV\u9759\u6001
p7766
aV\u9759\u9759
p7767
aV\u975e\u4f20\u7edf
p7768
aV\u975e\u5e38
p7769
aV\u975e\u5e38\u611f\u8c22
p7770
aV\u975e\u5e38\u9002\u5408
p7771
aV\u975e\u5e73\u8861\u6001
p7772
aV\u975e\u6027
p7773
aV\u975e\u7ebf\u6027
p7774
aV\u9762\u4e16
p7775
aV\u9762\u4e34
p7776
aV\u9762\u5411
p7777
aV\u9762\u5411\u5bf9\u8c61
p7778
aV\u9762\u5bf9
p7779
aV\u9762\u5e7f
p7780
aV\u9762\u9762\u4ff1\u5230
p7781
aV\u9769\u547d
p7782
aV\u97e6\u4f2f
p7783
aV\u97e9\u56fd
p7784
aV\u97f3\u4e50
p7785
aV\u97f3\u4f4d
p7786
aV\u97f3\u54cd
p7787
aV\u97f3\u5b57
p7788
aV\u97f3\u7bb1
p7789
aV\u97f3\u7cfb
p7790
aV\u97f3\u7cfb\u5b66
p7791
aV\u97f3\u7d20
p7792
aV\u97f3\u8282
p7793
aV\u97f3\u89c6\u9891
p7794
aV\u97f3\u9891
p7795
aV\u97f3\u9ad8
p7796
aV\u97f5\u5f8b
p7797
aV\u985e\u578b
p7798
aV\u9875\u7801
p7799
aV\u9875\u9762
p7800
aV\u9876\u5c16
p7801
aV\u9876\u6746
p7802
aV\u9876\u70b9
p7803
aV\u9879\u76ee
p7804
aV\u9879\u76ee\u7ba1\u7406
p7805
aV\u9879\u76ee\u7ecf\u7406
p7806
aV\u9879\u76ee\u98ce\u9669
p7807
aV\u987a\u4ece
p7808
aV\u987a\u5229
p7809
aV\u987a\u5e8f
p7810
aV\u987a\u5e8f\u6392\u5217
p7811
aV\u987d\u5f3a
p7812
aV\u987e\u95ee
p7813
aV\u9881\u53d1
p7814
aV\u9881\u5e03
p7815
aV\u9884\u5904\u7406
p7816
aV\u9884\u5907
p7817
aV\u9884\u62a5
p7818
aV\u9884\u671f
p7819
aV\u9884\u6d4b
p7820
aV\u9884\u793a
p7821
aV\u9884\u8a00
p7822
aV\u9884\u8b66
p7823
aV\u9886\u5148
p7824
aV\u9886\u5148\u5730\u4f4d
p7825
aV\u9886\u5148\u6c34\u5e73
p7826
aV\u9886\u519b\u4eba\u7269
p7827
aV\u9886\u57df
p7828
aV\u9886\u5bfc
p7829
aV\u9886\u5bfc\u73ed\u5b50
p7830
aV\u9886\u5bfc\u8005
p7831
aV\u9886\u609f\u5230
p7832
aV\u9886\u7565
p7833
aV\u9887\u4e30
p7834
aV\u9887\u4e3a
p7835
aV\u9891\u57df
p7836
aV\u9891\u7387
p7837
aV\u9891\u7387\u7279\u6027
p7838
aV\u9891\u8c31
p7839
aV\u9891\u9891
p7840
aV\u9898\u5143
p7841
aV\u9898\u53f7
p7842
aV\u9898\u578b
p7843
aV\u9898\u6750
p7844
aV\u9898\u732e
p7845
aV\u9898\u76ee
p7846
aV\u9898\u91cf
p7847
aV\u9898\u96c6
p7848
aV\u989c\u6cfd\u8d24
p7849
aV\u989c\u8272
p7850
aV\u989c\u8272\u89c6\u89c9
p7851
aV\u98a0\u8986\u6027
p7852
aV\u98ce\u529b
p7853
aV\u98ce\u534e
p7854
aV\u98ce\u683c
p7855
aV\u98ce\u7ba1
p7856
aV\u98ce\u884c
p7857
aV\u98ce\u9669
p7858
aV\u98ce\u9669\u7ba1\u7406
p7859
aV\u98ce\u9761
p7860
aV\u98ce\u9761\u4e00\u65f6
p7861
aV\u98ce\u9a6c\u725b\u4e0d\u76f8\u53ca
p7862
aV\u98d3\u98ce
p7863
aV\u98d8\u62c2
p7864
aV\u98de\u673a
p7865
aV\u98de\u7fd4
p7866
aV\u98de\u8247
p7867
aV\u98de\u884c
p7868
aV\u98de\u884c\u5668
p7869
aV\u98de\u901f\u53d1\u5c55
p7870
aV\u9910\u996e
p7871
aV\u9910\u996e\u4e1a
p7872
aV\u9971\u548c
p7873
aV\u9996\u5148
p7874
aV\u9996\u5c4a
p7875
aV\u9996\u5e2d
p7876
aV\u9996\u5ea6
p7877
aV\u9996\u6b21
p7878
aV\u9996\u9009
p7879
aV\u9996\u90fd\u5e08\u8303\u5927\u5b66
p7880
aV\u9996\u957f
p7881
aV\u9999\u519c
p7882
aV\u9999\u6e2f
p7883
aV\u9999\u70df
p7884
aV\u9a6c\u514b\u601d
p7885
aV\u9a6c\u514b\u601d\u4e3b\u4e49
p7886
aV\u9a6c\u514b\u65af
p7887
aV\u9a6c\u5c14\u53ef\u592b
p7888
aV\u9a6c\u5fb7\u594e
p7889
aV\u9a6c\u5fb7\u62c9\u65af
p7890
aV\u9a6c\u8428\u8bf8\u585e
p7891
aV\u9a6c\u8e44
p7892
aV\u9a71\u52a8
p7893
aV\u9a71\u52a8\u5668
p7894
aV\u9a7e\u9a6d\u80fd\u529b
p7895
aV\u9a7e\u9a76\u4eea
p7896
aV\u9a8c\u8bc1
p7897
aV\u9ad8\u4e2d\u5b66\u751f
p7898
aV\u9ad8\u4e2d\u6bd5\u4e1a
p7899
aV\u9ad8\u4e2d\u751f
p7900
aV\u9ad8\u538b
p7901
aV\u9ad8\u53ef\u9760\u6027
p7902
aV\u9ad8\u5bc6\u5ea6
p7903
aV\u9ad8\u5c04\u70ae
p7904
aV\u9ad8\u5c42
p7905
aV\u9ad8\u5c42\u6b21
p7906
aV\u9ad8\u5de5
p7907
aV\u9ad8\u5e74\u7ea7
p7908
aV\u9ad8\u5ea6
p7909
aV\u9ad8\u5ea6\u91cd\u89c6
p7910
aV\u9ad8\u6027\u80fd
p7911
aV\u9ad8\u6280\u672f
p7912
aV\u9ad8\u6548
p7913
aV\u9ad8\u65af
p7914
aV\u9ad8\u65b0\u6280\u672f
p7915
aV\u9ad8\u6821
p7916
aV\u9ad8\u6821\u5b66\u751f
p7917
aV\u9ad8\u6821\u6559\u5e08
p7918
aV\u9ad8\u6865
p7919
aV\u9ad8\u6df1
p7920
aV\u9ad8\u7089
p7921
aV\u9ad8\u70ae
p7922
aV\u9ad8\u7aef
p7923
aV\u9ad8\u7b49
p7924
aV\u9ad8\u7b49\u5b66\u6821
p7925
aV\u9ad8\u7b49\u6559\u80b2
p7926
aV\u9ad8\u7b49\u6559\u80b2\u51fa\u7248\u793e
p7927
aV\u9ad8\u7b49\u804c\u4e1a
p7928
aV\u9ad8\u7b49\u9662\u6821
p7929
aV\u9ad8\u7ea7
p7930
aV\u9ad8\u7ea7\u6280\u5de5
p7931
aV\u9ad8\u7ef4
p7932
aV\u9ad8\u8003
p7933
aV\u9ad8\u804c
p7934
aV\u9ad8\u804c\u9ad8\u4e13
p7935
aV\u9ad8\u8840\u538b
p7936
aV\u9ad8\u8840\u7cd6
p7937
aV\u9ad8\u8bbf
p7938
aV\u9ad8\u8d85
p7939
aV\u9ad8\u901f
p7940
aV\u9ad8\u901f\u516c\u8def
p7941
aV\u9ad8\u901f\u7f13\u5b58
p7942
aV\u9ad8\u9891
p7943
aV\u9b45\u529b
p7944
aV\u9b4f\u5b8f\u68ee
p7945
aV\u9b54\u6212
p7946
aV\u9b54\u6bbf
p7947
aV\u9c81\u5ddd
p7948
aV\u9c81\u68d2
p7949
aV\u9c81\u68d2\u6027
p7950
aV\u9c81\u68d2\u63a7\u5236
p7951
aV\u9c81\u83bd
p7952
aV\u9c8d\u59c6\u666e
p7953
aV\u9c9c\u660e
p7954
aV\u9c9c\u6d3b
p7955
aV\u9ea6\u514b\u65af\u97e6
p7956
aV\u9ea6\u8fea\u900a
p7957
aV\u9ebb\u5948
p7958
aV\u9ebb\u7701\u7406\u5de5
p7959
aV\u9ebb\u7701\u7406\u5de5\u5b66\u9662
p7960
aV\u9ec4\u91d1
p7961
aV\u9ed1\u5ba2
p7962
aV\u9ed1\u65af\u5ef7\u65af
p7963
aV\u9ed1\u6697
p7964
aV\u9ed1\u7bb1
p7965
aV\u9ed1\u8272\u5e7d\u9ed8
p7966
aV\u9ed8\u987f
p7967
aV\u9ed8\u9ed8
p7968
aV\u9f0e\u529b
p7969
aV\u9f13\u52b1
p7970
aV\u9f20\u6807\u5668
p7971
aV\u9f50\u5168
p7972
aV\u9f50\u5fc3
p7973
aV\u9f99\u5934
p7974
a.