(lp0
V\u4e00\u90e8\u5206
p1
aV\u4e2d\u534e\u4eba\u6c11\u5171\u548c\u56fd
p2
aV\u4e8b\u4e1a
p3
aV\u4eba\u6c11
p4
aV\u4eca\u5929
p5
aV\u4eff\u4f5b
p6
aV\u513f\u5b50
p7
aV\u51e0\u5f20
p8
aV\u5347\u4ed9
p9
aV\u535a\u7269\u9986
p10
aV\u5929\u6587
p11
aV\u597d\u597d\u5b66\u4e60
p12
aV\u5b66\u4e60
p13
aV\u5c31\u662f
p14
aV\u611f\u89c9
p15
aV\u6210\u4e3a
p16
aV\u6211\u4eec
p17
aV\u63a5\u73ed\u4eba
p18
aV\u65e0\u804a
p19
aV\u670d\u52a1
p20
aV\u6765\u81ea
p21
aV\u6982\u8bba
p22
aV\u6bdb\u6cfd\u4e1c
p23
aV\u7167\u7247
p24
aV\u77e5\u8bc6
p25
aV\u79d1\u5b66
p26
aV\u7b2c\u4e00\u6b21
p27
aV\u8d3c\u7403
p28
a.